	.section	__TEXT,__text,regular,pure_instructions
	.macosx_version_min 10, 13
	.file	1 "/Users/macbook/Documents/GitHub/-Hash-Table/Hash" "main.cpp"
	.file	2 "/Applications/Xcode.app/Contents/Developer/Toolchains/XcodeDefault.xctoolchain/usr/lib/clang/9.1.0/include" "stddef.h"
	.file	3 "/Applications/Xcode.app/Contents/Developer/Toolchains/XcodeDefault.xctoolchain/usr/include/c++/v1" "cstddef"
	.file	4 "/Applications/Xcode.app/Contents/Developer/Platforms/MacOSX.platform/Developer/SDKs/MacOSX10.13.sdk/usr/include/i386" "_types.h"
	.file	5 "/Applications/Xcode.app/Contents/Developer/Platforms/MacOSX.platform/Developer/SDKs/MacOSX10.13.sdk/usr/include/sys/_types" "_size_t.h"
	.file	6 "/Applications/Xcode.app/Contents/Developer/Toolchains/XcodeDefault.xctoolchain/usr/lib/clang/9.1.0/include" "__stddef_max_align_t.h"
	.file	7 "/Applications/Xcode.app/Contents/Developer/Toolchains/XcodeDefault.xctoolchain/usr/include/c++/v1" "cstring"
	.file	8 "/Applications/Xcode.app/Contents/Developer/Platforms/MacOSX.platform/Developer/SDKs/MacOSX10.13.sdk/usr/include" "string.h"
	.file	9 "/Applications/Xcode.app/Contents/Developer/Toolchains/XcodeDefault.xctoolchain/usr/include/c++/v1" "string.h"
	.file	10 "/Applications/Xcode.app/Contents/Developer/Platforms/MacOSX.platform/Developer/SDKs/MacOSX10.13.sdk/usr/include/sys/_types" "_int8_t.h"
	.file	11 "/Applications/Xcode.app/Contents/Developer/Toolchains/XcodeDefault.xctoolchain/usr/include/c++/v1" "cstdint"
	.file	12 "/Applications/Xcode.app/Contents/Developer/Platforms/MacOSX.platform/Developer/SDKs/MacOSX10.13.sdk/usr/include/sys/_types" "_int16_t.h"
	.file	13 "/Applications/Xcode.app/Contents/Developer/Platforms/MacOSX.platform/Developer/SDKs/MacOSX10.13.sdk/usr/include/sys/_types" "_int32_t.h"
	.file	14 "/Applications/Xcode.app/Contents/Developer/Platforms/MacOSX.platform/Developer/SDKs/MacOSX10.13.sdk/usr/include/sys/_types" "_int64_t.h"
	.file	15 "/Applications/Xcode.app/Contents/Developer/Platforms/MacOSX.platform/Developer/SDKs/MacOSX10.13.sdk/usr/include/_types" "_uint8_t.h"
	.file	16 "/Applications/Xcode.app/Contents/Developer/Platforms/MacOSX.platform/Developer/SDKs/MacOSX10.13.sdk/usr/include/_types" "_uint16_t.h"
	.file	17 "/Applications/Xcode.app/Contents/Developer/Platforms/MacOSX.platform/Developer/SDKs/MacOSX10.13.sdk/usr/include/_types" "_uint32_t.h"
	.file	18 "/Applications/Xcode.app/Contents/Developer/Platforms/MacOSX.platform/Developer/SDKs/MacOSX10.13.sdk/usr/include/_types" "_uint64_t.h"
	.file	19 "/Applications/Xcode.app/Contents/Developer/Platforms/MacOSX.platform/Developer/SDKs/MacOSX10.13.sdk/usr/include" "stdint.h"
	.file	20 "/Applications/Xcode.app/Contents/Developer/Platforms/MacOSX.platform/Developer/SDKs/MacOSX10.13.sdk/usr/include/sys/_types" "_intptr_t.h"
	.file	21 "/Applications/Xcode.app/Contents/Developer/Platforms/MacOSX.platform/Developer/SDKs/MacOSX10.13.sdk/usr/include/sys/_types" "_uintptr_t.h"
	.file	22 "/Applications/Xcode.app/Contents/Developer/Platforms/MacOSX.platform/Developer/SDKs/MacOSX10.13.sdk/usr/include/_types" "_intmax_t.h"
	.file	23 "/Applications/Xcode.app/Contents/Developer/Platforms/MacOSX.platform/Developer/SDKs/MacOSX10.13.sdk/usr/include/_types" "_uintmax_t.h"
	.file	24 "/Applications/Xcode.app/Contents/Developer/Toolchains/XcodeDefault.xctoolchain/usr/include/c++/v1" "cstdlib"
	.file	25 "/Applications/Xcode.app/Contents/Developer/Platforms/MacOSX.platform/Developer/SDKs/MacOSX10.13.sdk/usr/include" "stdlib.h"
	.file	26 "/Applications/Xcode.app/Contents/Developer/Toolchains/XcodeDefault.xctoolchain/usr/include/c++/v1" "stdlib.h"
	.file	27 "/Applications/Xcode.app/Contents/Developer/Platforms/MacOSX.platform/Developer/SDKs/MacOSX10.13.sdk/usr/include" "_stdio.h"
	.file	28 "/Applications/Xcode.app/Contents/Developer/Platforms/MacOSX.platform/Developer/SDKs/MacOSX10.13.sdk/usr/include/sys" "_types.h"
	.file	29 "/Applications/Xcode.app/Contents/Developer/Toolchains/XcodeDefault.xctoolchain/usr/include/c++/v1" "cstdio"
	.file	30 "/Applications/Xcode.app/Contents/Developer/Platforms/MacOSX.platform/Developer/SDKs/MacOSX10.13.sdk/usr/include" "stdio.h"
	.file	31 "/Applications/Xcode.app/Contents/Developer/Platforms/MacOSX.platform/Developer/SDKs/MacOSX10.13.sdk/usr/include" "_ctype.h"
	.file	32 "/Applications/Xcode.app/Contents/Developer/Toolchains/XcodeDefault.xctoolchain/usr/include/c++/v1" "cctype"
	.file	33 "/Applications/Xcode.app/Contents/Developer/Platforms/MacOSX.platform/Developer/SDKs/MacOSX10.13.sdk/usr/include/sys/_types" "_wint_t.h"
	.file	34 "/Applications/Xcode.app/Contents/Developer/Toolchains/XcodeDefault.xctoolchain/usr/include/c++/v1" "cwctype"
	.file	35 "/Applications/Xcode.app/Contents/Developer/Platforms/MacOSX.platform/Developer/SDKs/MacOSX10.13.sdk/usr/include" "_types.h"
	.file	36 "/Applications/Xcode.app/Contents/Developer/Platforms/MacOSX.platform/Developer/SDKs/MacOSX10.13.sdk/usr/include/_types" "_wctrans_t.h"
	.file	37 "/Applications/Xcode.app/Contents/Developer/Platforms/MacOSX.platform/Developer/SDKs/MacOSX10.13.sdk/usr/include/_types" "_wctype_t.h"
	.file	38 "/Applications/Xcode.app/Contents/Developer/Platforms/MacOSX.platform/Developer/SDKs/MacOSX10.13.sdk/usr/include" "_wctype.h"
	.file	39 "/Applications/Xcode.app/Contents/Developer/Platforms/MacOSX.platform/Developer/SDKs/MacOSX10.13.sdk/usr/include" "wctype.h"
	.file	40 "/Applications/Xcode.app/Contents/Developer/Platforms/MacOSX.platform/Developer/SDKs/MacOSX10.13.sdk/usr/include/sys/_types" "_mbstate_t.h"
	.file	41 "/Applications/Xcode.app/Contents/Developer/Toolchains/XcodeDefault.xctoolchain/usr/include/c++/v1" "cwchar"
	.file	42 "/Applications/Xcode.app/Contents/Developer/Platforms/MacOSX.platform/Developer/SDKs/MacOSX10.13.sdk/usr/include" "time.h"
	.file	43 "/Applications/Xcode.app/Contents/Developer/Platforms/MacOSX.platform/Developer/SDKs/MacOSX10.13.sdk/usr/include" "wchar.h"
	.file	44 "/Applications/Xcode.app/Contents/Developer/Toolchains/XcodeDefault.xctoolchain/usr/include/c++/v1" "wchar.h"
	.file	45 "/Applications/Xcode.app/Contents/Developer/Platforms/MacOSX.platform/Developer/SDKs/MacOSX10.13.sdk/usr/include/sys/_types" "_clock_t.h"
	.file	46 "/Applications/Xcode.app/Contents/Developer/Toolchains/XcodeDefault.xctoolchain/usr/include/c++/v1" "ctime"
	.file	47 "/Applications/Xcode.app/Contents/Developer/Platforms/MacOSX.platform/Developer/SDKs/MacOSX10.13.sdk/usr/include/sys/_types" "_time_t.h"
	.file	48 "/Applications/Xcode.app/Contents/Developer/Toolchains/XcodeDefault.xctoolchain/usr/include/c++/v1" "chrono"
	.globl	_main                   ## -- Begin function main
	.p2align	4, 0x90
_main:                                  ## @main
Lfunc_begin0:
	.loc	1 56 0                  ## /Users/macbook/Documents/GitHub/-Hash-Table/Hash/main.cpp:56:0
	.cfi_startproc
	.cfi_personality 155, ___gxx_personality_v0
	.cfi_lsda 16, Lexception0
## BB#0:
	pushq	%rbp
Lcfi0:
	.cfi_def_cfa_offset 16
Lcfi1:
	.cfi_offset %rbp, -16
	movq	%rsp, %rbp
Lcfi2:
	.cfi_def_cfa_register %rbp
	subq	$224, %rsp
	movq	___stack_chk_guard@GOTPCREL(%rip), %rax
	movq	(%rax), %rax
	movq	%rax, -8(%rbp)
	movl	$0, -12(%rbp)
	movl	%edi, -16(%rbp)
	movq	%rsi, -24(%rbp)
Ltmp28:
	.loc	1 57 9 prologue_end     ## /Users/macbook/Documents/GitHub/-Hash-Table/Hash/main.cpp:57:9
	movl	$-1, -28(%rbp)
	.loc	1 58 17                 ## /Users/macbook/Documents/GitHub/-Hash-Table/Hash/main.cpp:58:17
	leaq	__ZL15FILES_READ_NAME(%rip), %rdi
	leaq	-28(%rbp), %rsi
	callq	__Z9ReadFilesPKcPi
	.loc	1 58 11 is_stmt 0       ## /Users/macbook/Documents/GitHub/-Hash-Table/Hash/main.cpp:58:11
	movq	%rax, -40(%rbp)
	.loc	1 59 9 is_stmt 1        ## /Users/macbook/Documents/GitHub/-Hash-Table/Hash/main.cpp:59:9
	movl	$1000, -44(%rbp)        ## imm = 0x3E8
	.loc	1 61 5                  ## /Users/macbook/Documents/GitHub/-Hash-Table/Hash/main.cpp:61:5
	movl	-44(%rbp), %ecx
	movl	%ecx, %eax
	movq	%rsp, %rsi
	movq	%rsi, -56(%rbp)
	leaq	(%rax,%rax,4), %rsi
	leaq	15(,%rsi,8), %rsi
	movabsq	$549755813872, %rdi     ## imm = 0x7FFFFFFFF0
	andq	%rdi, %rsi
	movq	%rsp, %rdi
	subq	%rsi, %rdi
	movq	%rdi, %rsp
Ltmp29:
	##DEBUG_VALUE: main:array <- [%RDI+0]
	.loc	1 61 17 is_stmt 0       ## /Users/macbook/Documents/GitHub/-Hash-Table/Hash/main.cpp:61:17
	cmpq	$0, %rax
	movq	%rax, -80(%rbp)         ## 8-byte Spill
	movq	%rdi, -88(%rbp)         ## 8-byte Spill
Ltmp30:
	##DEBUG_VALUE: main:array <- [DW_OP_constu 88, DW_OP_minus, DW_OP_deref] [%RBP+0]
	je	LBB0_4
## BB#1:
	##DEBUG_VALUE: main:array <- [DW_OP_constu 88, DW_OP_minus, DW_OP_deref] [%RBP+0]
	movq	-80(%rbp), %rax         ## 8-byte Reload
	imulq	$40, %rax, %rcx
	movq	-88(%rbp), %rdx         ## 8-byte Reload
	addq	%rcx, %rdx
	movq	-88(%rbp), %rcx         ## 8-byte Reload
	movq	%rdx, -96(%rbp)         ## 8-byte Spill
	movq	%rcx, -104(%rbp)        ## 8-byte Spill
LBB0_2:                                 ## =>This Inner Loop Header: Depth=1
	##DEBUG_VALUE: main:array <- [DW_OP_constu 88, DW_OP_minus, DW_OP_deref] [%RBP+0]
Ltmp0:
	movq	-104(%rbp), %rax        ## 8-byte Reload
	xorl	%ecx, %ecx
	movl	%ecx, %esi
	movq	%rax, %rdi
	movq	%rax, -112(%rbp)        ## 8-byte Spill
	callq	__ZN4listIPcEC1ES0_
Ltmp1:
	jmp	LBB0_3
LBB0_3:                                 ##   in Loop: Header=BB0_2 Depth=1
	##DEBUG_VALUE: main:array <- [DW_OP_constu 88, DW_OP_minus, DW_OP_deref] [%RBP+0]
	movq	-112(%rbp), %rax        ## 8-byte Reload
	addq	$40, %rax
	movq	-96(%rbp), %rcx         ## 8-byte Reload
	cmpq	%rcx, %rax
	movq	%rax, -104(%rbp)        ## 8-byte Spill
	jne	LBB0_2
LBB0_4:
	##DEBUG_VALUE: main:array <- [DW_OP_constu 88, DW_OP_minus, DW_OP_deref] [%RBP+0]
	.loc	1 63 39 is_stmt 1       ## /Users/macbook/Documents/GitHub/-Hash-Table/Hash/main.cpp:63:39
	movl	-28(%rbp), %ecx
	.loc	1 63 52 is_stmt 0       ## /Users/macbook/Documents/GitHub/-Hash-Table/Hash/main.cpp:63:52
	movq	-40(%rbp), %r8
Ltmp3:
	.loc	1 63 5                  ## /Users/macbook/Documents/GitHub/-Hash-Table/Hash/main.cpp:63:5
	leaq	__Z5Hash1Pc(%rip), %rdx
	leaq	__ZL17FILES_WRITE_NAME1(%rip), %r9
	leaq	-44(%rbp), %rsi
	movq	-88(%rbp), %rdi         ## 8-byte Reload
	callq	__Z11CraftStringP4listIPcEPiPFjS0_EiS0_PKc
Ltmp4:
	movl	%eax, -116(%rbp)        ## 4-byte Spill
	jmp	LBB0_5
LBB0_5:
	##DEBUG_VALUE: main:array <- [DW_OP_constu 88, DW_OP_minus, DW_OP_deref] [%RBP+0]
	.loc	1 64 18 is_stmt 1       ## /Users/macbook/Documents/GitHub/-Hash-Table/Hash/main.cpp:64:18
	movl	-44(%rbp), %esi
Ltmp5:
	.loc	1 64 5 is_stmt 0        ## /Users/macbook/Documents/GitHub/-Hash-Table/Hash/main.cpp:64:5
	movq	-88(%rbp), %rdi         ## 8-byte Reload
	callq	__Z5ClearP4listIPcEi
Ltmp6:
	movl	%eax, -120(%rbp)        ## 4-byte Spill
	jmp	LBB0_6
LBB0_6:
	##DEBUG_VALUE: main:array <- [DW_OP_constu 88, DW_OP_minus, DW_OP_deref] [%RBP+0]
	.loc	1 65 39 is_stmt 1       ## /Users/macbook/Documents/GitHub/-Hash-Table/Hash/main.cpp:65:39
	movl	-28(%rbp), %ecx
	.loc	1 65 52 is_stmt 0       ## /Users/macbook/Documents/GitHub/-Hash-Table/Hash/main.cpp:65:52
	movq	-40(%rbp), %r8
Ltmp7:
	.loc	1 65 5                  ## /Users/macbook/Documents/GitHub/-Hash-Table/Hash/main.cpp:65:5
	leaq	__Z5Hash0Pc(%rip), %rdx
	leaq	__ZL17FILES_WRITE_NAME0(%rip), %r9
	leaq	-44(%rbp), %rsi
	movq	-88(%rbp), %rdi         ## 8-byte Reload
	callq	__Z11CraftStringP4listIPcEPiPFjS0_EiS0_PKc
Ltmp8:
	movl	%eax, -124(%rbp)        ## 4-byte Spill
	jmp	LBB0_7
LBB0_7:
	##DEBUG_VALUE: main:array <- [DW_OP_constu 88, DW_OP_minus, DW_OP_deref] [%RBP+0]
	.loc	1 66 18 is_stmt 1       ## /Users/macbook/Documents/GitHub/-Hash-Table/Hash/main.cpp:66:18
	movl	-44(%rbp), %esi
Ltmp9:
	.loc	1 66 5 is_stmt 0        ## /Users/macbook/Documents/GitHub/-Hash-Table/Hash/main.cpp:66:5
	movq	-88(%rbp), %rdi         ## 8-byte Reload
	callq	__Z5ClearP4listIPcEi
Ltmp10:
	movl	%eax, -128(%rbp)        ## 4-byte Spill
	jmp	LBB0_8
LBB0_8:
	##DEBUG_VALUE: main:array <- [DW_OP_constu 88, DW_OP_minus, DW_OP_deref] [%RBP+0]
	.loc	1 67 39 is_stmt 1       ## /Users/macbook/Documents/GitHub/-Hash-Table/Hash/main.cpp:67:39
	movl	-28(%rbp), %ecx
	.loc	1 67 52 is_stmt 0       ## /Users/macbook/Documents/GitHub/-Hash-Table/Hash/main.cpp:67:52
	movq	-40(%rbp), %r8
Ltmp11:
	.loc	1 67 5                  ## /Users/macbook/Documents/GitHub/-Hash-Table/Hash/main.cpp:67:5
	leaq	__Z5Hash2Pc(%rip), %rdx
	leaq	__ZL17FILES_WRITE_NAME2(%rip), %r9
	leaq	-44(%rbp), %rsi
	movq	-88(%rbp), %rdi         ## 8-byte Reload
	callq	__Z11CraftStringP4listIPcEPiPFjS0_EiS0_PKc
Ltmp12:
	movl	%eax, -132(%rbp)        ## 4-byte Spill
	jmp	LBB0_9
LBB0_9:
	##DEBUG_VALUE: main:array <- [DW_OP_constu 88, DW_OP_minus, DW_OP_deref] [%RBP+0]
	.loc	1 68 18 is_stmt 1       ## /Users/macbook/Documents/GitHub/-Hash-Table/Hash/main.cpp:68:18
	movl	-44(%rbp), %esi
Ltmp13:
	.loc	1 68 5 is_stmt 0        ## /Users/macbook/Documents/GitHub/-Hash-Table/Hash/main.cpp:68:5
	movq	-88(%rbp), %rdi         ## 8-byte Reload
	callq	__Z5ClearP4listIPcEi
Ltmp14:
	movl	%eax, -136(%rbp)        ## 4-byte Spill
	jmp	LBB0_10
LBB0_10:
	##DEBUG_VALUE: main:array <- [DW_OP_constu 88, DW_OP_minus, DW_OP_deref] [%RBP+0]
	.loc	1 69 39 is_stmt 1       ## /Users/macbook/Documents/GitHub/-Hash-Table/Hash/main.cpp:69:39
	movl	-28(%rbp), %ecx
	.loc	1 69 52 is_stmt 0       ## /Users/macbook/Documents/GitHub/-Hash-Table/Hash/main.cpp:69:52
	movq	-40(%rbp), %r8
Ltmp15:
	.loc	1 69 5                  ## /Users/macbook/Documents/GitHub/-Hash-Table/Hash/main.cpp:69:5
	leaq	__Z5Hash3Pc(%rip), %rdx
	leaq	__ZL17FILES_WRITE_NAME3(%rip), %r9
	leaq	-44(%rbp), %rsi
	movq	-88(%rbp), %rdi         ## 8-byte Reload
	callq	__Z11CraftStringP4listIPcEPiPFjS0_EiS0_PKc
Ltmp16:
	movl	%eax, -140(%rbp)        ## 4-byte Spill
	jmp	LBB0_11
LBB0_11:
	##DEBUG_VALUE: main:array <- [DW_OP_constu 88, DW_OP_minus, DW_OP_deref] [%RBP+0]
	.loc	1 70 18 is_stmt 1       ## /Users/macbook/Documents/GitHub/-Hash-Table/Hash/main.cpp:70:18
	movl	-44(%rbp), %esi
Ltmp17:
	.loc	1 70 5 is_stmt 0        ## /Users/macbook/Documents/GitHub/-Hash-Table/Hash/main.cpp:70:5
	movq	-88(%rbp), %rdi         ## 8-byte Reload
	callq	__Z5ClearP4listIPcEi
Ltmp18:
	movl	%eax, -144(%rbp)        ## 4-byte Spill
	jmp	LBB0_12
LBB0_12:
	##DEBUG_VALUE: main:array <- [DW_OP_constu 88, DW_OP_minus, DW_OP_deref] [%RBP+0]
	.loc	1 71 39 is_stmt 1       ## /Users/macbook/Documents/GitHub/-Hash-Table/Hash/main.cpp:71:39
	movl	-28(%rbp), %ecx
	.loc	1 71 52 is_stmt 0       ## /Users/macbook/Documents/GitHub/-Hash-Table/Hash/main.cpp:71:52
	movq	-40(%rbp), %r8
Ltmp19:
	.loc	1 71 5                  ## /Users/macbook/Documents/GitHub/-Hash-Table/Hash/main.cpp:71:5
	leaq	__Z5Hash4Pc(%rip), %rdx
	leaq	__ZL17FILES_WRITE_NAME4(%rip), %r9
	leaq	-44(%rbp), %rsi
	movq	-88(%rbp), %rdi         ## 8-byte Reload
	callq	__Z11CraftStringP4listIPcEPiPFjS0_EiS0_PKc
Ltmp20:
	movl	%eax, -148(%rbp)        ## 4-byte Spill
	jmp	LBB0_13
LBB0_13:
	##DEBUG_VALUE: main:array <- [DW_OP_constu 88, DW_OP_minus, DW_OP_deref] [%RBP+0]
	.loc	1 72 18 is_stmt 1       ## /Users/macbook/Documents/GitHub/-Hash-Table/Hash/main.cpp:72:18
	movl	-44(%rbp), %esi
Ltmp21:
	.loc	1 72 5 is_stmt 0        ## /Users/macbook/Documents/GitHub/-Hash-Table/Hash/main.cpp:72:5
	movq	-88(%rbp), %rdi         ## 8-byte Reload
	callq	__Z5ClearP4listIPcEi
Ltmp22:
	movl	%eax, -152(%rbp)        ## 4-byte Spill
	jmp	LBB0_14
LBB0_14:
	##DEBUG_VALUE: main:array <- [DW_OP_constu 88, DW_OP_minus, DW_OP_deref] [%RBP+0]
	.loc	1 73 39 is_stmt 1       ## /Users/macbook/Documents/GitHub/-Hash-Table/Hash/main.cpp:73:39
	movl	-28(%rbp), %ecx
	.loc	1 73 52 is_stmt 0       ## /Users/macbook/Documents/GitHub/-Hash-Table/Hash/main.cpp:73:52
	movq	-40(%rbp), %r8
Ltmp23:
	.loc	1 73 5                  ## /Users/macbook/Documents/GitHub/-Hash-Table/Hash/main.cpp:73:5
	leaq	__Z5Hash5Pc(%rip), %rdx
	leaq	__ZL17FILES_WRITE_NAME5(%rip), %r9
	leaq	-44(%rbp), %rsi
	movq	-88(%rbp), %rdi         ## 8-byte Reload
	callq	__Z11CraftStringP4listIPcEPiPFjS0_EiS0_PKc
Ltmp24:
	movl	%eax, -156(%rbp)        ## 4-byte Spill
	jmp	LBB0_15
LBB0_15:
	##DEBUG_VALUE: main:array <- [DW_OP_constu 88, DW_OP_minus, DW_OP_deref] [%RBP+0]
	.loc	1 74 18 is_stmt 1       ## /Users/macbook/Documents/GitHub/-Hash-Table/Hash/main.cpp:74:18
	movl	-44(%rbp), %esi
Ltmp25:
	.loc	1 74 5 is_stmt 0        ## /Users/macbook/Documents/GitHub/-Hash-Table/Hash/main.cpp:74:5
	movq	-88(%rbp), %rdi         ## 8-byte Reload
	callq	__Z5ClearP4listIPcEi
Ltmp26:
	movl	%eax, -160(%rbp)        ## 4-byte Spill
	jmp	LBB0_16
LBB0_16:
	##DEBUG_VALUE: main:array <- [DW_OP_constu 88, DW_OP_minus, DW_OP_deref] [%RBP+0]
	.loc	1 77 5 is_stmt 1        ## /Users/macbook/Documents/GitHub/-Hash-Table/Hash/main.cpp:77:5
	movl	$0, -12(%rbp)
	.loc	1 78 1                  ## /Users/macbook/Documents/GitHub/-Hash-Table/Hash/main.cpp:78:1
	movq	-80(%rbp), %rax         ## 8-byte Reload
	imulq	$40, %rax, %rcx
	movq	-88(%rbp), %rdx         ## 8-byte Reload
	addq	%rcx, %rdx
	movq	-88(%rbp), %rcx         ## 8-byte Reload
	cmpq	%rdx, %rcx
	movq	%rdx, -168(%rbp)        ## 8-byte Spill
	je	LBB0_22
	jmp	LBB0_21
LBB0_17:
	##DEBUG_VALUE: main:array <- [DW_OP_constu 88, DW_OP_minus, DW_OP_deref] [%RBP+0]
Ltmp2:
	movl	%edx, %ecx
	movq	%rax, -64(%rbp)
	movl	%ecx, -68(%rbp)
	.loc	1 61 17                 ## /Users/macbook/Documents/GitHub/-Hash-Table/Hash/main.cpp:61:17
	movq	-88(%rbp), %rax         ## 8-byte Reload
	movq	-112(%rbp), %rdx        ## 8-byte Reload
	cmpq	%rdx, %rax
	movq	%rdx, -176(%rbp)        ## 8-byte Spill
	je	LBB0_19
LBB0_18:                                ## =>This Inner Loop Header: Depth=1
	##DEBUG_VALUE: main:array <- [DW_OP_constu 88, DW_OP_minus, DW_OP_deref] [%RBP+0]
	movq	-176(%rbp), %rax        ## 8-byte Reload
	addq	$-40, %rax
	movq	%rax, %rdi
	movq	%rax, -184(%rbp)        ## 8-byte Spill
	callq	__ZN4listIPcED1Ev
	movq	-184(%rbp), %rax        ## 8-byte Reload
	movq	-88(%rbp), %rdi         ## 8-byte Reload
	cmpq	%rdi, %rax
	movq	%rax, -176(%rbp)        ## 8-byte Spill
	jne	LBB0_18
LBB0_19:
	##DEBUG_VALUE: main:array <- [DW_OP_constu 88, DW_OP_minus, DW_OP_deref] [%RBP+0]
	jmp	LBB0_26
LBB0_20:
	##DEBUG_VALUE: main:array <- [DW_OP_constu 88, DW_OP_minus, DW_OP_deref] [%RBP+0]
Ltmp27:
	.loc	1 78 1                  ## /Users/macbook/Documents/GitHub/-Hash-Table/Hash/main.cpp:78:1
	movl	%edx, %ecx
	movq	%rax, -64(%rbp)
	movl	%ecx, -68(%rbp)
	movq	-80(%rbp), %rax         ## 8-byte Reload
	imulq	$40, %rax, %rdx
	movq	-88(%rbp), %rsi         ## 8-byte Reload
	addq	%rdx, %rsi
	movq	-88(%rbp), %rdx         ## 8-byte Reload
	cmpq	%rsi, %rdx
	movq	%rsi, -192(%rbp)        ## 8-byte Spill
	je	LBB0_25
	jmp	LBB0_24
LBB0_21:                                ## =>This Inner Loop Header: Depth=1
	##DEBUG_VALUE: main:array <- [DW_OP_constu 88, DW_OP_minus, DW_OP_deref] [%RBP+0]
	movq	-168(%rbp), %rax        ## 8-byte Reload
	addq	$-40, %rax
	movq	%rax, %rdi
	movq	%rax, -200(%rbp)        ## 8-byte Spill
	callq	__ZN4listIPcED1Ev
	movq	-200(%rbp), %rax        ## 8-byte Reload
	movq	-88(%rbp), %rdi         ## 8-byte Reload
	cmpq	%rdi, %rax
	movq	%rax, -168(%rbp)        ## 8-byte Spill
	jne	LBB0_21
LBB0_22:
	##DEBUG_VALUE: main:array <- [DW_OP_constu 88, DW_OP_minus, DW_OP_deref] [%RBP+0]
	movq	-56(%rbp), %rax
	movq	%rax, %rsp
	movl	-12(%rbp), %eax
	movq	___stack_chk_guard@GOTPCREL(%rip), %rcx
	movq	(%rcx), %rcx
	movq	-8(%rbp), %rdx
	cmpq	%rdx, %rcx
	movl	%eax, -204(%rbp)        ## 4-byte Spill
	jne	LBB0_27
## BB#23:
	##DEBUG_VALUE: main:array <- [DW_OP_constu 88, DW_OP_minus, DW_OP_deref] [%RBP+0]
	movl	-204(%rbp), %eax        ## 4-byte Reload
	movq	%rbp, %rsp
	popq	%rbp
	retq
LBB0_24:                                ## =>This Inner Loop Header: Depth=1
	##DEBUG_VALUE: main:array <- [DW_OP_constu 88, DW_OP_minus, DW_OP_deref] [%RBP+0]
	movq	-192(%rbp), %rax        ## 8-byte Reload
	addq	$-40, %rax
	movq	%rax, %rdi
	movq	%rax, -216(%rbp)        ## 8-byte Spill
	callq	__ZN4listIPcED1Ev
	movq	-216(%rbp), %rax        ## 8-byte Reload
	movq	-88(%rbp), %rdi         ## 8-byte Reload
	cmpq	%rdi, %rax
	movq	%rax, -192(%rbp)        ## 8-byte Spill
	jne	LBB0_24
LBB0_25:
	##DEBUG_VALUE: main:array <- [DW_OP_constu 88, DW_OP_minus, DW_OP_deref] [%RBP+0]
	jmp	LBB0_26
LBB0_26:
	##DEBUG_VALUE: main:array <- [DW_OP_constu 88, DW_OP_minus, DW_OP_deref] [%RBP+0]
	.loc	1 61 17                 ## /Users/macbook/Documents/GitHub/-Hash-Table/Hash/main.cpp:61:17
	movq	-64(%rbp), %rdi
	callq	__Unwind_Resume
LBB0_27:
	##DEBUG_VALUE: main:array <- [DW_OP_constu 88, DW_OP_minus, DW_OP_deref] [%RBP+0]
	.loc	1 0 0 is_stmt 0         ## /Users/macbook/Documents/GitHub/-Hash-Table/Hash/main.cpp:0:0
	callq	___stack_chk_fail
Ltmp31:
Lfunc_end0:
	.cfi_endproc
	.section	__TEXT,__gcc_except_tab
	.p2align	2
GCC_except_table0:
Lexception0:
	.byte	255                     ## @LPStart Encoding = omit
	.byte	155                     ## @TType Encoding = indirect pcrel sdata4
	.asciz	"\266\200\200"          ## @TType base offset
	.byte	3                       ## Call site Encoding = udata4
	.byte	52                      ## Call site table length
Lset0 = Lfunc_begin0-Lfunc_begin0       ## >> Call Site 1 <<
	.long	Lset0
Lset1 = Ltmp0-Lfunc_begin0              ##   Call between Lfunc_begin0 and Ltmp0
	.long	Lset1
	.long	0                       ##     has no landing pad
	.byte	0                       ##   On action: cleanup
Lset2 = Ltmp0-Lfunc_begin0              ## >> Call Site 2 <<
	.long	Lset2
Lset3 = Ltmp1-Ltmp0                     ##   Call between Ltmp0 and Ltmp1
	.long	Lset3
Lset4 = Ltmp2-Lfunc_begin0              ##     jumps to Ltmp2
	.long	Lset4
	.byte	0                       ##   On action: cleanup
Lset5 = Ltmp3-Lfunc_begin0              ## >> Call Site 3 <<
	.long	Lset5
Lset6 = Ltmp26-Ltmp3                    ##   Call between Ltmp3 and Ltmp26
	.long	Lset6
Lset7 = Ltmp27-Lfunc_begin0             ##     jumps to Ltmp27
	.long	Lset7
	.byte	0                       ##   On action: cleanup
Lset8 = Ltmp26-Lfunc_begin0             ## >> Call Site 4 <<
	.long	Lset8
Lset9 = Lfunc_end0-Ltmp26               ##   Call between Ltmp26 and Lfunc_end0
	.long	Lset9
	.long	0                       ##     has no landing pad
	.byte	0                       ##   On action: cleanup
	.p2align	2
                                        ## -- End function
	.section	__TEXT,__text,regular,pure_instructions
	.globl	__Z9ReadFilesPKcPi      ## -- Begin function _Z9ReadFilesPKcPi
	.p2align	4, 0x90
__Z9ReadFilesPKcPi:                     ## @_Z9ReadFilesPKcPi
Lfunc_begin1:
	.loc	1 116 0 is_stmt 1       ## /Users/macbook/Documents/GitHub/-Hash-Table/Hash/main.cpp:116:0
	.cfi_startproc
## BB#0:
	pushq	%rbp
Lcfi3:
	.cfi_def_cfa_offset 16
Lcfi4:
	.cfi_offset %rbp, -16
	movq	%rsp, %rbp
Lcfi5:
	.cfi_def_cfa_register %rbp
	subq	$64, %rsp
	leaq	L_.str(%rip), %rax
	movq	%rdi, -8(%rbp)
	movq	%rsi, -16(%rbp)
Ltmp32:
	.loc	1 119 26 prologue_end   ## /Users/macbook/Documents/GitHub/-Hash-Table/Hash/main.cpp:119:26
	movq	-8(%rbp), %rdi
	.loc	1 119 19 is_stmt 0      ## /Users/macbook/Documents/GitHub/-Hash-Table/Hash/main.cpp:119:19
	movq	%rax, %rsi
	callq	_fopen
	.loc	1 119 11                ## /Users/macbook/Documents/GitHub/-Hash-Table/Hash/main.cpp:119:11
	movq	%rax, -24(%rbp)
Ltmp33:
	.loc	1 122 15 is_stmt 1      ## /Users/macbook/Documents/GitHub/-Hash-Table/Hash/main.cpp:122:15
	cmpq	$0, -24(%rbp)
Ltmp34:
	.loc	1 122 9 is_stmt 0       ## /Users/macbook/Documents/GitHub/-Hash-Table/Hash/main.cpp:122:9
	jne	LBB1_5
## BB#1:
Ltmp35:
	.loc	1 124 9 is_stmt 1       ## /Users/macbook/Documents/GitHub/-Hash-Table/Hash/main.cpp:124:9
	cmpq	$0, -24(%rbp)
	setne	%al
	xorb	$-1, %al
	testb	$1, %al
	jne	LBB1_2
	jmp	LBB1_3
LBB1_2:
	.loc	1 0 9 is_stmt 0         ## /Users/macbook/Documents/GitHub/-Hash-Table/Hash/main.cpp:0:9
	leaq	L___func__._Z9ReadFilesPKcPi(%rip), %rdi
	leaq	L_.str.1(%rip), %rsi
	movl	$124, %edx
	leaq	L_.str.2(%rip), %rcx
	.loc	1 124 9                 ## /Users/macbook/Documents/GitHub/-Hash-Table/Hash/main.cpp:124:9
	callq	___assert_rtn
LBB1_3:
	jmp	LBB1_4
LBB1_4:
	.loc	1 125 5 is_stmt 1       ## /Users/macbook/Documents/GitHub/-Hash-Table/Hash/main.cpp:125:5
	jmp	LBB1_5
Ltmp36:
LBB1_5:
	.loc	1 0 5 is_stmt 0         ## /Users/macbook/Documents/GitHub/-Hash-Table/Hash/main.cpp:0:5
	xorl	%eax, %eax
	movl	%eax, %esi
	movl	$2, %edx
	.loc	1 127 12 is_stmt 1      ## /Users/macbook/Documents/GitHub/-Hash-Table/Hash/main.cpp:127:12
	movq	-24(%rbp), %rdi
	.loc	1 127 5 is_stmt 0       ## /Users/macbook/Documents/GitHub/-Hash-Table/Hash/main.cpp:127:5
	callq	_fseek
	.loc	1 128 29 is_stmt 1      ## /Users/macbook/Documents/GitHub/-Hash-Table/Hash/main.cpp:128:29
	movq	-24(%rbp), %rdi
	.loc	1 128 23 is_stmt 0      ## /Users/macbook/Documents/GitHub/-Hash-Table/Hash/main.cpp:128:23
	movl	%eax, -36(%rbp)         ## 4-byte Spill
	callq	_ftell
	movl	%eax, %edx
	.loc	1 128 6                 ## /Users/macbook/Documents/GitHub/-Hash-Table/Hash/main.cpp:128:6
	movq	-16(%rbp), %rax
	.loc	1 128 21                ## /Users/macbook/Documents/GitHub/-Hash-Table/Hash/main.cpp:128:21
	movl	%edx, (%rax)
	.loc	1 130 42 is_stmt 1      ## /Users/macbook/Documents/GitHub/-Hash-Table/Hash/main.cpp:130:42
	movq	-16(%rbp), %rax
	.loc	1 130 39 is_stmt 0      ## /Users/macbook/Documents/GitHub/-Hash-Table/Hash/main.cpp:130:39
	movl	(%rax), %edx
	addl	$1, %edx
	movl	%edx, (%rax)
	movslq	%edx, %rdi
	.loc	1 130 29                ## /Users/macbook/Documents/GitHub/-Hash-Table/Hash/main.cpp:130:29
	callq	__Znam
	xorl	%edx, %edx
	movl	%edx, %esi
	xorl	%edx, %edx
	.loc	1 130 11                ## /Users/macbook/Documents/GitHub/-Hash-Table/Hash/main.cpp:130:11
	movq	%rax, -32(%rbp)
	.loc	1 133 12 is_stmt 1      ## /Users/macbook/Documents/GitHub/-Hash-Table/Hash/main.cpp:133:12
	movq	-24(%rbp), %rdi
	.loc	1 133 5 is_stmt 0       ## /Users/macbook/Documents/GitHub/-Hash-Table/Hash/main.cpp:133:5
	callq	_fseek
	movl	$1, %edx
	movl	%edx, %esi
	.loc	1 134 12 is_stmt 1      ## /Users/macbook/Documents/GitHub/-Hash-Table/Hash/main.cpp:134:12
	movq	-32(%rbp), %rdi
	.loc	1 134 45 is_stmt 0      ## /Users/macbook/Documents/GitHub/-Hash-Table/Hash/main.cpp:134:45
	movq	-16(%rbp), %rcx
	.loc	1 134 44                ## /Users/macbook/Documents/GitHub/-Hash-Table/Hash/main.cpp:134:44
	movslq	(%rcx), %rdx
	.loc	1 134 61                ## /Users/macbook/Documents/GitHub/-Hash-Table/Hash/main.cpp:134:61
	movq	-24(%rbp), %rcx
	.loc	1 134 5                 ## /Users/macbook/Documents/GitHub/-Hash-Table/Hash/main.cpp:134:5
	movl	%eax, -40(%rbp)         ## 4-byte Spill
	callq	_fread
	.loc	1 135 13 is_stmt 1      ## /Users/macbook/Documents/GitHub/-Hash-Table/Hash/main.cpp:135:13
	movq	-24(%rbp), %rdi
	.loc	1 135 5 is_stmt 0       ## /Users/macbook/Documents/GitHub/-Hash-Table/Hash/main.cpp:135:5
	movq	%rax, -48(%rbp)         ## 8-byte Spill
	callq	_fclose
	.loc	1 136 5 is_stmt 1       ## /Users/macbook/Documents/GitHub/-Hash-Table/Hash/main.cpp:136:5
	movq	-32(%rbp), %rcx
	.loc	1 136 23 is_stmt 0      ## /Users/macbook/Documents/GitHub/-Hash-Table/Hash/main.cpp:136:23
	movq	-16(%rbp), %rdx
	.loc	1 136 22                ## /Users/macbook/Documents/GitHub/-Hash-Table/Hash/main.cpp:136:22
	movl	(%rdx), %r8d
	.loc	1 136 38                ## /Users/macbook/Documents/GitHub/-Hash-Table/Hash/main.cpp:136:38
	subl	$1, %r8d
	.loc	1 136 5                 ## /Users/macbook/Documents/GitHub/-Hash-Table/Hash/main.cpp:136:5
	movslq	%r8d, %rdx
	.loc	1 136 43                ## /Users/macbook/Documents/GitHub/-Hash-Table/Hash/main.cpp:136:43
	movb	$0, (%rcx,%rdx)
	.loc	1 137 12 is_stmt 1      ## /Users/macbook/Documents/GitHub/-Hash-Table/Hash/main.cpp:137:12
	movq	-32(%rbp), %rcx
	.loc	1 137 5 is_stmt 0       ## /Users/macbook/Documents/GitHub/-Hash-Table/Hash/main.cpp:137:5
	movl	%eax, -52(%rbp)         ## 4-byte Spill
	movq	%rcx, %rax
	addq	$64, %rsp
	popq	%rbp
	retq
Ltmp37:
Lfunc_end1:
	.cfi_endproc
                                        ## -- End function
	.globl	__ZN4listIPcEC1ES0_     ## -- Begin function _ZN4listIPcEC1ES0_
	.weak_def_can_be_hidden	__ZN4listIPcEC1ES0_
	.p2align	4, 0x90
__ZN4listIPcEC1ES0_:                    ## @_ZN4listIPcEC1ES0_
Lfunc_begin2:
	.file	49 "/Users/macbook/Documents/GitHub/-Hash-Table/Hash/../resources" "List.h"
	.loc	49 72 0 is_stmt 1       ## /Users/macbook/Documents/GitHub/-Hash-Table/Hash/../resources/List.h:72:0
	.cfi_startproc
## BB#0:
	pushq	%rbp
Lcfi6:
	.cfi_def_cfa_offset 16
Lcfi7:
	.cfi_offset %rbp, -16
	movq	%rsp, %rbp
Lcfi8:
	.cfi_def_cfa_register %rbp
	subq	$16, %rsp
	movq	%rdi, -8(%rbp)
	movq	%rsi, -16(%rbp)
	movq	-8(%rbp), %rdi
Ltmp38:
	.loc	49 72 1 prologue_end    ## /Users/macbook/Documents/GitHub/-Hash-Table/Hash/../resources/List.h:72:1
	movq	-16(%rbp), %rsi
	callq	__ZN4listIPcEC2ES0_
	.loc	49 76 1                 ## /Users/macbook/Documents/GitHub/-Hash-Table/Hash/../resources/List.h:76:1
	addq	$16, %rsp
	popq	%rbp
	retq
Ltmp39:
Lfunc_end2:
	.cfi_endproc
                                        ## -- End function
	.globl	__ZN4listIPcED1Ev       ## -- Begin function _ZN4listIPcED1Ev
	.weak_def_can_be_hidden	__ZN4listIPcED1Ev
	.p2align	4, 0x90
__ZN4listIPcED1Ev:                      ## @_ZN4listIPcED1Ev
Lfunc_begin3:
	.loc	49 82 0                 ## /Users/macbook/Documents/GitHub/-Hash-Table/Hash/../resources/List.h:82:0
	.cfi_startproc
## BB#0:
	pushq	%rbp
Lcfi9:
	.cfi_def_cfa_offset 16
Lcfi10:
	.cfi_offset %rbp, -16
	movq	%rsp, %rbp
Lcfi11:
	.cfi_def_cfa_register %rbp
	subq	$16, %rsp
	movq	%rdi, -8(%rbp)
	movq	-8(%rbp), %rdi
Ltmp40:
	.loc	49 82 1 prologue_end    ## /Users/macbook/Documents/GitHub/-Hash-Table/Hash/../resources/List.h:82:1
	callq	__ZN4listIPcED2Ev
	.loc	49 90 1                 ## /Users/macbook/Documents/GitHub/-Hash-Table/Hash/../resources/List.h:90:1
	addq	$16, %rsp
	popq	%rbp
	retq
Ltmp41:
Lfunc_end3:
	.cfi_endproc
                                        ## -- End function
	.globl	__Z11CraftStringP4listIPcEPiPFjS0_EiS0_PKc ## -- Begin function _Z11CraftStringP4listIPcEPiPFjS0_EiS0_PKc
	.p2align	4, 0x90
__Z11CraftStringP4listIPcEPiPFjS0_EiS0_PKc: ## @_Z11CraftStringP4listIPcEPiPFjS0_EiS0_PKc
Lfunc_begin4:
	.loc	1 92 0                  ## /Users/macbook/Documents/GitHub/-Hash-Table/Hash/main.cpp:92:0
	.cfi_startproc
## BB#0:
	pushq	%rbp
Lcfi12:
	.cfi_def_cfa_offset 16
Lcfi13:
	.cfi_offset %rbp, -16
	movq	%rsp, %rbp
Lcfi14:
	.cfi_def_cfa_register %rbp
	subq	$80, %rsp
	movq	%rdi, -8(%rbp)
	movq	%rsi, -16(%rbp)
	movq	%rdx, -24(%rbp)
	movl	%ecx, -28(%rbp)
	movq	%r8, -40(%rbp)
	movq	%r9, -48(%rbp)
Ltmp42:
	.loc	1 94 11 prologue_end    ## /Users/macbook/Documents/GitHub/-Hash-Table/Hash/main.cpp:94:11
	movq	$0, -56(%rbp)
Ltmp43:
	.loc	1 95 14                 ## /Users/macbook/Documents/GitHub/-Hash-Table/Hash/main.cpp:95:14
	movl	$0, -60(%rbp)
LBB4_1:                                 ## =>This Loop Header: Depth=1
                                        ##     Child Loop BB4_4 Depth 2
Ltmp44:
	.loc	1 95 23 is_stmt 0       ## /Users/macbook/Documents/GitHub/-Hash-Table/Hash/main.cpp:95:23
	movl	-60(%rbp), %eax
	.loc	1 95 27                 ## /Users/macbook/Documents/GitHub/-Hash-Table/Hash/main.cpp:95:27
	cmpl	-28(%rbp), %eax
Ltmp45:
	.loc	1 95 5                  ## /Users/macbook/Documents/GitHub/-Hash-Table/Hash/main.cpp:95:5
	jge	LBB4_10
## BB#2:                                ##   in Loop: Header=BB4_1 Depth=1
Ltmp46:
	.loc	1 97 26 is_stmt 1       ## /Users/macbook/Documents/GitHub/-Hash-Table/Hash/main.cpp:97:26
	movq	-40(%rbp), %rax
	movslq	-60(%rbp), %rcx
	movsbl	(%rax,%rcx), %edi
	.loc	1 97 13 is_stmt 0       ## /Users/macbook/Documents/GitHub/-Hash-Table/Hash/main.cpp:97:13
	callq	__Z7isalphai
	cmpl	$0, %eax
Ltmp47:
	.loc	1 97 13                 ## /Users/macbook/Documents/GitHub/-Hash-Table/Hash/main.cpp:97:13
	je	LBB4_8
## BB#3:                                ##   in Loop: Header=BB4_1 Depth=1
Ltmp48:
	.loc	1 100 38 is_stmt 1      ## /Users/macbook/Documents/GitHub/-Hash-Table/Hash/main.cpp:100:38
	movq	-40(%rbp), %rax
	movslq	-60(%rbp), %rcx
	movsbl	(%rax,%rcx), %edi
	.loc	1 100 25 is_stmt 0      ## /Users/macbook/Documents/GitHub/-Hash-Table/Hash/main.cpp:100:25
	callq	__Z7toloweri
	movb	%al, %dl
	.loc	1 100 13                ## /Users/macbook/Documents/GitHub/-Hash-Table/Hash/main.cpp:100:13
	movq	-40(%rbp), %rcx
	movslq	-60(%rbp), %rsi
	.loc	1 100 23                ## /Users/macbook/Documents/GitHub/-Hash-Table/Hash/main.cpp:100:23
	movb	%dl, (%rcx,%rsi)
	.loc	1 101 21 is_stmt 1      ## /Users/macbook/Documents/GitHub/-Hash-Table/Hash/main.cpp:101:21
	movq	-40(%rbp), %rcx
	movslq	-60(%rbp), %rsi
	addq	%rsi, %rcx
	.loc	1 101 17 is_stmt 0      ## /Users/macbook/Documents/GitHub/-Hash-Table/Hash/main.cpp:101:17
	movq	%rcx, -56(%rbp)
LBB4_4:                                 ##   Parent Loop BB4_1 Depth=1
                                        ## =>  This Inner Loop Header: Depth=2
Ltmp49:
	.loc	1 103 32 is_stmt 1      ## /Users/macbook/Documents/GitHub/-Hash-Table/Hash/main.cpp:103:32
	movq	-40(%rbp), %rax
	movslq	-60(%rbp), %rcx
	movsbl	(%rax,%rcx), %edi
	.loc	1 103 19 is_stmt 0      ## /Users/macbook/Documents/GitHub/-Hash-Table/Hash/main.cpp:103:19
	callq	__Z7isalphai
	cmpl	$0, %eax
Ltmp50:
	.loc	1 103 13                ## /Users/macbook/Documents/GitHub/-Hash-Table/Hash/main.cpp:103:13
	je	LBB4_7
## BB#5:                                ##   in Loop: Header=BB4_4 Depth=2
Ltmp51:
	.loc	1 104 42 is_stmt 1      ## /Users/macbook/Documents/GitHub/-Hash-Table/Hash/main.cpp:104:42
	movq	-40(%rbp), %rax
	movslq	-60(%rbp), %rcx
	movsbl	(%rax,%rcx), %edi
	.loc	1 104 29 is_stmt 0      ## /Users/macbook/Documents/GitHub/-Hash-Table/Hash/main.cpp:104:29
	callq	__Z7toloweri
	movb	%al, %dl
	.loc	1 104 17                ## /Users/macbook/Documents/GitHub/-Hash-Table/Hash/main.cpp:104:17
	movq	-40(%rbp), %rcx
	movslq	-60(%rbp), %rsi
	.loc	1 104 27                ## /Users/macbook/Documents/GitHub/-Hash-Table/Hash/main.cpp:104:27
	movb	%dl, (%rcx,%rsi)
## BB#6:                                ##   in Loop: Header=BB4_4 Depth=2
	.loc	1 103 47 is_stmt 1      ## /Users/macbook/Documents/GitHub/-Hash-Table/Hash/main.cpp:103:47
	movl	-60(%rbp), %eax
	addl	$1, %eax
	movl	%eax, -60(%rbp)
	.loc	1 103 13 is_stmt 0      ## /Users/macbook/Documents/GitHub/-Hash-Table/Hash/main.cpp:103:13
	jmp	LBB4_4
Ltmp52:
LBB4_7:                                 ##   in Loop: Header=BB4_1 Depth=1
	.loc	1 106 13 is_stmt 1      ## /Users/macbook/Documents/GitHub/-Hash-Table/Hash/main.cpp:106:13
	movq	-40(%rbp), %rax
	movslq	-60(%rbp), %rcx
	.loc	1 106 23 is_stmt 0      ## /Users/macbook/Documents/GitHub/-Hash-Table/Hash/main.cpp:106:23
	movb	$0, (%rax,%rcx)
	.loc	1 107 23 is_stmt 1      ## /Users/macbook/Documents/GitHub/-Hash-Table/Hash/main.cpp:107:23
	movq	-8(%rbp), %rdi
	.loc	1 107 30 is_stmt 0      ## /Users/macbook/Documents/GitHub/-Hash-Table/Hash/main.cpp:107:30
	movq	-56(%rbp), %rsi
	.loc	1 107 35                ## /Users/macbook/Documents/GitHub/-Hash-Table/Hash/main.cpp:107:35
	movq	-16(%rbp), %rdx
	.loc	1 107 41                ## /Users/macbook/Documents/GitHub/-Hash-Table/Hash/main.cpp:107:41
	movq	-24(%rbp), %rcx
	.loc	1 107 13                ## /Users/macbook/Documents/GitHub/-Hash-Table/Hash/main.cpp:107:13
	callq	__Z8TablFindP4listIPcES0_PiPFjS0_E
	movl	%eax, -64(%rbp)         ## 4-byte Spill
Ltmp53:
LBB4_8:                                 ##   in Loop: Header=BB4_1 Depth=1
	.loc	1 109 5 is_stmt 1       ## /Users/macbook/Documents/GitHub/-Hash-Table/Hash/main.cpp:109:5
	jmp	LBB4_9
Ltmp54:
LBB4_9:                                 ##   in Loop: Header=BB4_1 Depth=1
	.loc	1 95 45                 ## /Users/macbook/Documents/GitHub/-Hash-Table/Hash/main.cpp:95:45
	movl	-60(%rbp), %eax
	addl	$1, %eax
	movl	%eax, -60(%rbp)
	.loc	1 95 5 is_stmt 0        ## /Users/macbook/Documents/GitHub/-Hash-Table/Hash/main.cpp:95:5
	jmp	LBB4_1
Ltmp55:
LBB4_10:
	.loc	1 110 16 is_stmt 1      ## /Users/macbook/Documents/GitHub/-Hash-Table/Hash/main.cpp:110:16
	movq	-48(%rbp), %rdi
	.loc	1 110 28 is_stmt 0      ## /Users/macbook/Documents/GitHub/-Hash-Table/Hash/main.cpp:110:28
	movq	-8(%rbp), %rsi
	.loc	1 110 35                ## /Users/macbook/Documents/GitHub/-Hash-Table/Hash/main.cpp:110:35
	movq	-16(%rbp), %rdx
	.loc	1 110 5                 ## /Users/macbook/Documents/GitHub/-Hash-Table/Hash/main.cpp:110:5
	callq	__Z10PrintFilesPKcP4listIPcEPi
	xorl	%ecx, %ecx
	.loc	1 111 5 is_stmt 1       ## /Users/macbook/Documents/GitHub/-Hash-Table/Hash/main.cpp:111:5
	movl	%eax, -68(%rbp)         ## 4-byte Spill
	movl	%ecx, %eax
	addq	$80, %rsp
	popq	%rbp
	retq
Ltmp56:
Lfunc_end4:
	.cfi_endproc
                                        ## -- End function
	.globl	__Z5Hash1Pc             ## -- Begin function _Z5Hash1Pc
	.p2align	4, 0x90
__Z5Hash1Pc:                            ## @_Z5Hash1Pc
Lfunc_begin5:
	.loc	1 142 0                 ## /Users/macbook/Documents/GitHub/-Hash-Table/Hash/main.cpp:142:0
	.cfi_startproc
## BB#0:
	pushq	%rbp
Lcfi15:
	.cfi_def_cfa_offset 16
Lcfi16:
	.cfi_offset %rbp, -16
	movq	%rsp, %rbp
Lcfi17:
	.cfi_def_cfa_register %rbp
	movl	$1, %eax
	movq	%rdi, -8(%rbp)
Ltmp57:
	.loc	1 143 5 prologue_end    ## /Users/macbook/Documents/GitHub/-Hash-Table/Hash/main.cpp:143:5
	popq	%rbp
	retq
Ltmp58:
Lfunc_end5:
	.cfi_endproc
                                        ## -- End function
	.globl	__Z5ClearP4listIPcEi    ## -- Begin function _Z5ClearP4listIPcEi
	.p2align	4, 0x90
__Z5ClearP4listIPcEi:                   ## @_Z5ClearP4listIPcEi
Lfunc_begin6:
	.loc	1 82 0                  ## /Users/macbook/Documents/GitHub/-Hash-Table/Hash/main.cpp:82:0
	.cfi_startproc
## BB#0:
	pushq	%rbp
Lcfi18:
	.cfi_def_cfa_offset 16
Lcfi19:
	.cfi_offset %rbp, -16
	movq	%rsp, %rbp
Lcfi20:
	.cfi_def_cfa_register %rbp
	subq	$16, %rsp
	movq	%rdi, -8(%rbp)
	movl	%esi, -12(%rbp)
Ltmp59:
	.loc	1 83 14 prologue_end    ## /Users/macbook/Documents/GitHub/-Hash-Table/Hash/main.cpp:83:14
	movl	$0, -16(%rbp)
LBB6_1:                                 ## =>This Inner Loop Header: Depth=1
Ltmp60:
	.loc	1 83 21 is_stmt 0       ## /Users/macbook/Documents/GitHub/-Hash-Table/Hash/main.cpp:83:21
	movl	-16(%rbp), %eax
	.loc	1 83 23                 ## /Users/macbook/Documents/GitHub/-Hash-Table/Hash/main.cpp:83:23
	cmpl	-12(%rbp), %eax
Ltmp61:
	.loc	1 83 5                  ## /Users/macbook/Documents/GitHub/-Hash-Table/Hash/main.cpp:83:5
	jge	LBB6_4
## BB#2:                                ##   in Loop: Header=BB6_1 Depth=1
Ltmp62:
	.loc	1 84 10 is_stmt 1       ## /Users/macbook/Documents/GitHub/-Hash-Table/Hash/main.cpp:84:10
	movq	-8(%rbp), %rax
	movslq	-16(%rbp), %rcx
	imulq	$40, %rcx, %rcx
	addq	%rcx, %rax
	.loc	1 84 21 is_stmt 0       ## /Users/macbook/Documents/GitHub/-Hash-Table/Hash/main.cpp:84:21
	movq	%rax, %rdi
	callq	__ZN4listIPcE5ClearEv
Ltmp63:
## BB#3:                                ##   in Loop: Header=BB6_1 Depth=1
	.loc	1 83 32 is_stmt 1       ## /Users/macbook/Documents/GitHub/-Hash-Table/Hash/main.cpp:83:32
	movl	-16(%rbp), %eax
	addl	$1, %eax
	movl	%eax, -16(%rbp)
	.loc	1 83 5 is_stmt 0        ## /Users/macbook/Documents/GitHub/-Hash-Table/Hash/main.cpp:83:5
	jmp	LBB6_1
Ltmp64:
LBB6_4:
	.loc	1 0 5                   ## /Users/macbook/Documents/GitHub/-Hash-Table/Hash/main.cpp:0:5
	xorl	%eax, %eax
	.loc	1 86 5 is_stmt 1        ## /Users/macbook/Documents/GitHub/-Hash-Table/Hash/main.cpp:86:5
	addq	$16, %rsp
	popq	%rbp
	retq
Ltmp65:
Lfunc_end6:
	.cfi_endproc
                                        ## -- End function
	.globl	__Z5Hash0Pc             ## -- Begin function _Z5Hash0Pc
	.p2align	4, 0x90
__Z5Hash0Pc:                            ## @_Z5Hash0Pc
Lfunc_begin7:
	.loc	1 146 0                 ## /Users/macbook/Documents/GitHub/-Hash-Table/Hash/main.cpp:146:0
	.cfi_startproc
## BB#0:
	pushq	%rbp
Lcfi21:
	.cfi_def_cfa_offset 16
Lcfi22:
	.cfi_offset %rbp, -16
	movq	%rsp, %rbp
Lcfi23:
	.cfi_def_cfa_register %rbp
	movq	%rdi, -8(%rbp)
Ltmp66:
	.loc	1 147 18 prologue_end   ## /Users/macbook/Documents/GitHub/-Hash-Table/Hash/main.cpp:147:18
	movq	-8(%rbp), %rdi
	.loc	1 147 17 is_stmt 0      ## /Users/macbook/Documents/GitHub/-Hash-Table/Hash/main.cpp:147:17
	movsbl	(%rdi), %eax
	.loc	1 147 5                 ## /Users/macbook/Documents/GitHub/-Hash-Table/Hash/main.cpp:147:5
	popq	%rbp
	retq
Ltmp67:
Lfunc_end7:
	.cfi_endproc
                                        ## -- End function
	.globl	__Z5Hash2Pc             ## -- Begin function _Z5Hash2Pc
	.p2align	4, 0x90
__Z5Hash2Pc:                            ## @_Z5Hash2Pc
Lfunc_begin8:
	.loc	1 150 0 is_stmt 1       ## /Users/macbook/Documents/GitHub/-Hash-Table/Hash/main.cpp:150:0
	.cfi_startproc
## BB#0:
	pushq	%rbp
Lcfi24:
	.cfi_def_cfa_offset 16
Lcfi25:
	.cfi_offset %rbp, -16
	movq	%rsp, %rbp
Lcfi26:
	.cfi_def_cfa_register %rbp
	subq	$16, %rsp
	movq	%rdi, -8(%rbp)
Ltmp68:
	.loc	1 151 19 prologue_end   ## /Users/macbook/Documents/GitHub/-Hash-Table/Hash/main.cpp:151:19
	movq	-8(%rbp), %rdi
	.loc	1 151 12 is_stmt 0      ## /Users/macbook/Documents/GitHub/-Hash-Table/Hash/main.cpp:151:12
	callq	_strlen
	movl	%eax, %ecx
	.loc	1 151 5                 ## /Users/macbook/Documents/GitHub/-Hash-Table/Hash/main.cpp:151:5
	movl	%ecx, %eax
	addq	$16, %rsp
	popq	%rbp
	retq
Ltmp69:
Lfunc_end8:
	.cfi_endproc
                                        ## -- End function
	.globl	__Z5Hash3Pc             ## -- Begin function _Z5Hash3Pc
	.p2align	4, 0x90
__Z5Hash3Pc:                            ## @_Z5Hash3Pc
Lfunc_begin9:
	.loc	1 154 0 is_stmt 1       ## /Users/macbook/Documents/GitHub/-Hash-Table/Hash/main.cpp:154:0
	.cfi_startproc
## BB#0:
	pushq	%rbp
Lcfi27:
	.cfi_def_cfa_offset 16
Lcfi28:
	.cfi_offset %rbp, -16
	movq	%rsp, %rbp
Lcfi29:
	.cfi_def_cfa_register %rbp
	movq	%rdi, -8(%rbp)
Ltmp70:
	.loc	1 155 9 prologue_end    ## /Users/macbook/Documents/GitHub/-Hash-Table/Hash/main.cpp:155:9
	movl	$0, -12(%rbp)
Ltmp71:
	.loc	1 156 14                ## /Users/macbook/Documents/GitHub/-Hash-Table/Hash/main.cpp:156:14
	movl	$0, -16(%rbp)
LBB9_1:                                 ## =>This Inner Loop Header: Depth=1
Ltmp72:
	.loc	1 156 21 is_stmt 0      ## /Users/macbook/Documents/GitHub/-Hash-Table/Hash/main.cpp:156:21
	movq	-8(%rbp), %rax
	movslq	-16(%rbp), %rcx
	movsbl	(%rax,%rcx), %edx
	.loc	1 156 29                ## /Users/macbook/Documents/GitHub/-Hash-Table/Hash/main.cpp:156:29
	cmpl	$0, %edx
Ltmp73:
	.loc	1 156 5                 ## /Users/macbook/Documents/GitHub/-Hash-Table/Hash/main.cpp:156:5
	je	LBB9_4
## BB#2:                                ##   in Loop: Header=BB9_1 Depth=1
Ltmp74:
	.loc	1 156 60                ## /Users/macbook/Documents/GitHub/-Hash-Table/Hash/main.cpp:156:60
	jmp	LBB9_3
Ltmp75:
LBB9_3:                                 ##   in Loop: Header=BB9_1 Depth=1
	.loc	1 156 45                ## /Users/macbook/Documents/GitHub/-Hash-Table/Hash/main.cpp:156:45
	movq	-8(%rbp), %rax
	movslq	-16(%rbp), %rcx
	movsbl	(%rax,%rcx), %edx
	.loc	1 156 42                ## /Users/macbook/Documents/GitHub/-Hash-Table/Hash/main.cpp:156:42
	addl	-12(%rbp), %edx
	movl	%edx, -12(%rbp)
	.loc	1 156 55                ## /Users/macbook/Documents/GitHub/-Hash-Table/Hash/main.cpp:156:55
	movl	-16(%rbp), %edx
	addl	$1, %edx
	movl	%edx, -16(%rbp)
	.loc	1 156 5                 ## /Users/macbook/Documents/GitHub/-Hash-Table/Hash/main.cpp:156:5
	jmp	LBB9_1
Ltmp76:
LBB9_4:
	.loc	1 157 12 is_stmt 1      ## /Users/macbook/Documents/GitHub/-Hash-Table/Hash/main.cpp:157:12
	movl	-12(%rbp), %eax
	.loc	1 157 5 is_stmt 0       ## /Users/macbook/Documents/GitHub/-Hash-Table/Hash/main.cpp:157:5
	popq	%rbp
	retq
Ltmp77:
Lfunc_end9:
	.cfi_endproc
                                        ## -- End function
	.globl	__Z5Hash4Pc             ## -- Begin function _Z5Hash4Pc
	.p2align	4, 0x90
__Z5Hash4Pc:                            ## @_Z5Hash4Pc
Lfunc_begin10:
	.loc	1 160 0 is_stmt 1       ## /Users/macbook/Documents/GitHub/-Hash-Table/Hash/main.cpp:160:0
	.cfi_startproc
## BB#0:
	pushq	%rbp
Lcfi30:
	.cfi_def_cfa_offset 16
Lcfi31:
	.cfi_offset %rbp, -16
	movq	%rsp, %rbp
Lcfi32:
	.cfi_def_cfa_register %rbp
	movq	%rdi, -8(%rbp)
Ltmp78:
	.loc	1 161 9 prologue_end    ## /Users/macbook/Documents/GitHub/-Hash-Table/Hash/main.cpp:161:9
	movl	$0, -12(%rbp)
Ltmp79:
	.loc	1 162 14                ## /Users/macbook/Documents/GitHub/-Hash-Table/Hash/main.cpp:162:14
	movl	$0, -16(%rbp)
LBB10_1:                                ## =>This Inner Loop Header: Depth=1
Ltmp80:
	.loc	1 162 21 is_stmt 0      ## /Users/macbook/Documents/GitHub/-Hash-Table/Hash/main.cpp:162:21
	movq	-8(%rbp), %rax
	movslq	-16(%rbp), %rcx
	movsbl	(%rax,%rcx), %edx
	.loc	1 162 29                ## /Users/macbook/Documents/GitHub/-Hash-Table/Hash/main.cpp:162:29
	cmpl	$0, %edx
Ltmp81:
	.loc	1 162 5                 ## /Users/macbook/Documents/GitHub/-Hash-Table/Hash/main.cpp:162:5
	je	LBB10_4
## BB#2:                                ##   in Loop: Header=BB10_1 Depth=1
Ltmp82:
	.loc	1 162 74                ## /Users/macbook/Documents/GitHub/-Hash-Table/Hash/main.cpp:162:74
	jmp	LBB10_3
Ltmp83:
LBB10_3:                                ##   in Loop: Header=BB10_1 Depth=1
	.loc	1 162 44                ## /Users/macbook/Documents/GitHub/-Hash-Table/Hash/main.cpp:162:44
	movl	-12(%rbp), %eax
	.loc	1 162 46                ## /Users/macbook/Documents/GitHub/-Hash-Table/Hash/main.cpp:162:46
	shll	$5, %eax
	.loc	1 162 52                ## /Users/macbook/Documents/GitHub/-Hash-Table/Hash/main.cpp:162:52
	addl	-12(%rbp), %eax
	.loc	1 162 59                ## /Users/macbook/Documents/GitHub/-Hash-Table/Hash/main.cpp:162:59
	movq	-8(%rbp), %rcx
	movslq	-16(%rbp), %rdx
	movsbl	(%rcx,%rdx), %esi
	.loc	1 162 57                ## /Users/macbook/Documents/GitHub/-Hash-Table/Hash/main.cpp:162:57
	addl	%esi, %eax
	.loc	1 162 40                ## /Users/macbook/Documents/GitHub/-Hash-Table/Hash/main.cpp:162:40
	movl	%eax, -12(%rbp)
	.loc	1 162 69                ## /Users/macbook/Documents/GitHub/-Hash-Table/Hash/main.cpp:162:69
	movl	-16(%rbp), %eax
	addl	$1, %eax
	movl	%eax, -16(%rbp)
	.loc	1 162 5                 ## /Users/macbook/Documents/GitHub/-Hash-Table/Hash/main.cpp:162:5
	jmp	LBB10_1
Ltmp84:
LBB10_4:
	.loc	1 163 12 is_stmt 1      ## /Users/macbook/Documents/GitHub/-Hash-Table/Hash/main.cpp:163:12
	movl	-12(%rbp), %eax
	.loc	1 163 5 is_stmt 0       ## /Users/macbook/Documents/GitHub/-Hash-Table/Hash/main.cpp:163:5
	popq	%rbp
	retq
Ltmp85:
Lfunc_end10:
	.cfi_endproc
                                        ## -- End function
	.globl	__Z5Hash5Pc             ## -- Begin function _Z5Hash5Pc
	.p2align	4, 0x90
__Z5Hash5Pc:                            ## @_Z5Hash5Pc
Lfunc_begin11:
	.loc	1 166 0 is_stmt 1       ## /Users/macbook/Documents/GitHub/-Hash-Table/Hash/main.cpp:166:0
	.cfi_startproc
## BB#0:
	pushq	%rbp
Lcfi33:
	.cfi_def_cfa_offset 16
Lcfi34:
	.cfi_offset %rbp, -16
	movq	%rsp, %rbp
Lcfi35:
	.cfi_def_cfa_register %rbp
	subq	$16, %rsp
	movq	%rdi, -8(%rbp)
Ltmp86:
	.loc	1 167 18 prologue_end   ## /Users/macbook/Documents/GitHub/-Hash-Table/Hash/main.cpp:167:18
	movl	$0, -12(%rbp)
Ltmp87:
	.loc	1 169 14                ## /Users/macbook/Documents/GitHub/-Hash-Table/Hash/main.cpp:169:14
	movl	$0, -16(%rbp)
LBB11_1:                                ## =>This Inner Loop Header: Depth=1
Ltmp88:
	.loc	1 169 21 is_stmt 0      ## /Users/macbook/Documents/GitHub/-Hash-Table/Hash/main.cpp:169:21
	movq	-8(%rbp), %rax
	movslq	-16(%rbp), %rcx
	movsbl	(%rax,%rcx), %edx
	.loc	1 169 29                ## /Users/macbook/Documents/GitHub/-Hash-Table/Hash/main.cpp:169:29
	cmpl	$0, %edx
Ltmp89:
	.loc	1 169 5                 ## /Users/macbook/Documents/GitHub/-Hash-Table/Hash/main.cpp:169:5
	je	LBB11_4
## BB#2:                                ##   in Loop: Header=BB11_1 Depth=1
	.loc	1 0 5                   ## /Users/macbook/Documents/GitHub/-Hash-Table/Hash/main.cpp:0:5
	movl	$1, %esi
Ltmp90:
	.loc	1 170 18 is_stmt 1      ## /Users/macbook/Documents/GitHub/-Hash-Table/Hash/main.cpp:170:18
	movl	-12(%rbp), %edi
	.loc	1 170 13 is_stmt 0      ## /Users/macbook/Documents/GitHub/-Hash-Table/Hash/main.cpp:170:13
	callq	__Z4frolii
	.loc	1 170 26                ## /Users/macbook/Documents/GitHub/-Hash-Table/Hash/main.cpp:170:26
	movq	-8(%rbp), %rcx
	movslq	-16(%rbp), %rdx
	movsbl	(%rcx,%rdx), %esi
	.loc	1 170 24                ## /Users/macbook/Documents/GitHub/-Hash-Table/Hash/main.cpp:170:24
	xorl	%esi, %eax
	.loc	1 170 11                ## /Users/macbook/Documents/GitHub/-Hash-Table/Hash/main.cpp:170:11
	movl	%eax, -12(%rbp)
Ltmp91:
## BB#3:                                ##   in Loop: Header=BB11_1 Depth=1
	.loc	1 169 39 is_stmt 1      ## /Users/macbook/Documents/GitHub/-Hash-Table/Hash/main.cpp:169:39
	movl	-16(%rbp), %eax
	addl	$1, %eax
	movl	%eax, -16(%rbp)
	.loc	1 169 5 is_stmt 0       ## /Users/macbook/Documents/GitHub/-Hash-Table/Hash/main.cpp:169:5
	jmp	LBB11_1
Ltmp92:
LBB11_4:
	.loc	1 172 12 is_stmt 1      ## /Users/macbook/Documents/GitHub/-Hash-Table/Hash/main.cpp:172:12
	movl	-12(%rbp), %eax
	.loc	1 172 5 is_stmt 0       ## /Users/macbook/Documents/GitHub/-Hash-Table/Hash/main.cpp:172:5
	addq	$16, %rsp
	popq	%rbp
	retq
Ltmp93:
Lfunc_end11:
	.cfi_endproc
                                        ## -- End function
	.globl	__ZN4listIPcE5ClearEv   ## -- Begin function _ZN4listIPcE5ClearEv
	.weak_definition	__ZN4listIPcE5ClearEv
	.p2align	4, 0x90
__ZN4listIPcE5ClearEv:                  ## @_ZN4listIPcE5ClearEv
Lfunc_begin12:
	.loc	49 95 0 is_stmt 1       ## /Users/macbook/Documents/GitHub/-Hash-Table/Hash/../resources/List.h:95:0
	.cfi_startproc
## BB#0:
	pushq	%rbp
Lcfi36:
	.cfi_def_cfa_offset 16
Lcfi37:
	.cfi_offset %rbp, -16
	movq	%rsp, %rbp
Lcfi38:
	.cfi_def_cfa_register %rbp
	subq	$48, %rsp
	movq	%rdi, -8(%rbp)
	movq	-8(%rbp), %rdi
Ltmp94:
	.loc	49 96 13 prologue_end   ## /Users/macbook/Documents/GitHub/-Hash-Table/Hash/../resources/List.h:96:13
	movq	16(%rdi), %rax
	.loc	49 96 29 is_stmt 0      ## /Users/macbook/Documents/GitHub/-Hash-Table/Hash/../resources/List.h:96:29
	movq	8(%rax), %rax
	.loc	49 96 11                ## /Users/macbook/Documents/GitHub/-Hash-Table/Hash/../resources/List.h:96:11
	movq	%rax, 8(%rdi)
Ltmp95:
	.loc	49 99 14 is_stmt 1      ## /Users/macbook/Documents/GitHub/-Hash-Table/Hash/../resources/List.h:99:14
	movl	$1, -20(%rbp)
	movq	%rdi, -32(%rbp)         ## 8-byte Spill
LBB12_1:                                ## =>This Inner Loop Header: Depth=1
Ltmp96:
	.loc	49 99 21 is_stmt 0      ## /Users/macbook/Documents/GitHub/-Hash-Table/Hash/../resources/List.h:99:21
	movl	-20(%rbp), %eax
	.loc	49 99 23                ## /Users/macbook/Documents/GitHub/-Hash-Table/Hash/../resources/List.h:99:23
	movq	-32(%rbp), %rcx         ## 8-byte Reload
	cmpl	(%rcx), %eax
Ltmp97:
	.loc	49 99 5                 ## /Users/macbook/Documents/GitHub/-Hash-Table/Hash/../resources/List.h:99:5
	jge	LBB12_8
## BB#2:                                ##   in Loop: Header=BB12_1 Depth=1
Ltmp98:
	.loc	49 100 16 is_stmt 1     ## /Users/macbook/Documents/GitHub/-Hash-Table/Hash/../resources/List.h:100:16
	movq	-32(%rbp), %rax         ## 8-byte Reload
	movq	8(%rax), %rcx
	.loc	49 100 14 is_stmt 0     ## /Users/macbook/Documents/GitHub/-Hash-Table/Hash/../resources/List.h:100:14
	movq	%rcx, -16(%rbp)
Ltmp99:
	.loc	49 101 19 is_stmt 1     ## /Users/macbook/Documents/GitHub/-Hash-Table/Hash/../resources/List.h:101:19
	cmpq	$0, 8(%rax)
Ltmp100:
	.loc	49 101 13 is_stmt 0     ## /Users/macbook/Documents/GitHub/-Hash-Table/Hash/../resources/List.h:101:13
	je	LBB12_4
## BB#3:                                ##   in Loop: Header=BB12_1 Depth=1
Ltmp101:
	.loc	49 102 21 is_stmt 1     ## /Users/macbook/Documents/GitHub/-Hash-Table/Hash/../resources/List.h:102:21
	movq	-32(%rbp), %rax         ## 8-byte Reload
	movq	8(%rax), %rcx
	.loc	49 102 28 is_stmt 0     ## /Users/macbook/Documents/GitHub/-Hash-Table/Hash/../resources/List.h:102:28
	movq	8(%rcx), %rcx
	.loc	49 102 19               ## /Users/macbook/Documents/GitHub/-Hash-Table/Hash/../resources/List.h:102:19
	movq	%rcx, 8(%rax)
Ltmp102:
LBB12_4:                                ##   in Loop: Header=BB12_1 Depth=1
	.loc	49 103 16 is_stmt 1     ## /Users/macbook/Documents/GitHub/-Hash-Table/Hash/../resources/List.h:103:16
	movq	-16(%rbp), %rax
	.loc	49 103 9 is_stmt 0      ## /Users/macbook/Documents/GitHub/-Hash-Table/Hash/../resources/List.h:103:9
	cmpq	$0, %rax
	movq	%rax, -40(%rbp)         ## 8-byte Spill
	je	LBB12_6
## BB#5:                                ##   in Loop: Header=BB12_1 Depth=1
	movq	-40(%rbp), %rdi         ## 8-byte Reload
	callq	__ZN6cell_tIPcED1Ev
	movq	-40(%rbp), %rdi         ## 8-byte Reload
	callq	__ZdlPv
LBB12_6:                                ##   in Loop: Header=BB12_1 Depth=1
	.loc	49 104 5 is_stmt 1      ## /Users/macbook/Documents/GitHub/-Hash-Table/Hash/../resources/List.h:104:5
	jmp	LBB12_7
Ltmp103:
LBB12_7:                                ##   in Loop: Header=BB12_1 Depth=1
	.loc	49 99 33                ## /Users/macbook/Documents/GitHub/-Hash-Table/Hash/../resources/List.h:99:33
	movl	-20(%rbp), %eax
	addl	$1, %eax
	movl	%eax, -20(%rbp)
	.loc	49 99 5 is_stmt 0       ## /Users/macbook/Documents/GitHub/-Hash-Table/Hash/../resources/List.h:99:5
	jmp	LBB12_1
Ltmp104:
LBB12_8:
	.loc	49 105 5 is_stmt 1      ## /Users/macbook/Documents/GitHub/-Hash-Table/Hash/../resources/List.h:105:5
	movq	-32(%rbp), %rax         ## 8-byte Reload
	movq	16(%rax), %rcx
	.loc	49 105 27 is_stmt 0     ## /Users/macbook/Documents/GitHub/-Hash-Table/Hash/../resources/List.h:105:27
	movq	$0, 8(%rcx)
	.loc	49 106 5 is_stmt 1      ## /Users/macbook/Documents/GitHub/-Hash-Table/Hash/../resources/List.h:106:5
	movq	16(%rax), %rcx
	.loc	49 106 27 is_stmt 0     ## /Users/macbook/Documents/GitHub/-Hash-Table/Hash/../resources/List.h:106:27
	movq	$0, (%rcx)
	.loc	49 107 13 is_stmt 1     ## /Users/macbook/Documents/GitHub/-Hash-Table/Hash/../resources/List.h:107:13
	movq	16(%rax), %rcx
	.loc	49 107 11 is_stmt 0     ## /Users/macbook/Documents/GitHub/-Hash-Table/Hash/../resources/List.h:107:11
	movq	%rcx, 8(%rax)
	.loc	49 108 12 is_stmt 1     ## /Users/macbook/Documents/GitHub/-Hash-Table/Hash/../resources/List.h:108:12
	movq	16(%rax), %rcx
	.loc	49 108 10 is_stmt 0     ## /Users/macbook/Documents/GitHub/-Hash-Table/Hash/../resources/List.h:108:10
	movq	%rcx, 24(%rax)
	.loc	49 109 11 is_stmt 1     ## /Users/macbook/Documents/GitHub/-Hash-Table/Hash/../resources/List.h:109:11
	movl	$1, (%rax)
	.loc	49 110 1                ## /Users/macbook/Documents/GitHub/-Hash-Table/Hash/../resources/List.h:110:1
	addq	$48, %rsp
	popq	%rbp
	retq
Ltmp105:
Lfunc_end12:
	.cfi_endproc
                                        ## -- End function
	.private_extern	__Z7isalphai    ## -- Begin function _Z7isalphai
	.globl	__Z7isalphai
	.weak_definition	__Z7isalphai
	.p2align	4, 0x90
__Z7isalphai:                           ## @_Z7isalphai
Lfunc_begin13:
	.loc	31 219 0                ## /Applications/Xcode.app/Contents/Developer/Platforms/MacOSX.platform/Developer/SDKs/MacOSX10.13.sdk/usr/include/_ctype.h:219:0
	.cfi_startproc
## BB#0:
	pushq	%rbp
Lcfi39:
	.cfi_def_cfa_offset 16
Lcfi40:
	.cfi_offset %rbp, -16
	movq	%rsp, %rbp
Lcfi41:
	.cfi_def_cfa_register %rbp
	subq	$16, %rsp
	movl	$256, %eax              ## imm = 0x100
	movl	%eax, %esi
	movl	%edi, -4(%rbp)
Ltmp106:
	.loc	31 220 19 prologue_end  ## /Applications/Xcode.app/Contents/Developer/Platforms/MacOSX.platform/Developer/SDKs/MacOSX10.13.sdk/usr/include/_ctype.h:220:19
	movl	-4(%rbp), %edi
	.loc	31 220 10 is_stmt 0     ## /Applications/Xcode.app/Contents/Developer/Platforms/MacOSX.platform/Developer/SDKs/MacOSX10.13.sdk/usr/include/_ctype.h:220:10
	callq	__Z8__istypeim
	.loc	31 220 2                ## /Applications/Xcode.app/Contents/Developer/Platforms/MacOSX.platform/Developer/SDKs/MacOSX10.13.sdk/usr/include/_ctype.h:220:2
	addq	$16, %rsp
	popq	%rbp
	retq
Ltmp107:
Lfunc_end13:
	.cfi_endproc
                                        ## -- End function
	.private_extern	__Z7toloweri    ## -- Begin function _Z7toloweri
	.globl	__Z7toloweri
	.weak_definition	__Z7toloweri
	.p2align	4, 0x90
__Z7toloweri:                           ## @_Z7toloweri
Lfunc_begin14:
	.loc	31 293 0 is_stmt 1      ## /Applications/Xcode.app/Contents/Developer/Platforms/MacOSX.platform/Developer/SDKs/MacOSX10.13.sdk/usr/include/_ctype.h:293:0
	.cfi_startproc
## BB#0:
	pushq	%rbp
Lcfi42:
	.cfi_def_cfa_offset 16
Lcfi43:
	.cfi_offset %rbp, -16
	movq	%rsp, %rbp
Lcfi44:
	.cfi_def_cfa_register %rbp
	subq	$16, %rsp
	movl	%edi, -4(%rbp)
Ltmp108:
	.loc	31 294 27 prologue_end  ## /Applications/Xcode.app/Contents/Developer/Platforms/MacOSX.platform/Developer/SDKs/MacOSX10.13.sdk/usr/include/_ctype.h:294:27
	movl	-4(%rbp), %edi
	.loc	31 294 17 is_stmt 0     ## /Applications/Xcode.app/Contents/Developer/Platforms/MacOSX.platform/Developer/SDKs/MacOSX10.13.sdk/usr/include/_ctype.h:294:17
	callq	___tolower
	.loc	31 294 9                ## /Applications/Xcode.app/Contents/Developer/Platforms/MacOSX.platform/Developer/SDKs/MacOSX10.13.sdk/usr/include/_ctype.h:294:9
	addq	$16, %rsp
	popq	%rbp
	retq
Ltmp109:
Lfunc_end14:
	.cfi_endproc
                                        ## -- End function
	.globl	__Z8TablFindP4listIPcES0_PiPFjS0_E ## -- Begin function _Z8TablFindP4listIPcES0_PiPFjS0_E
	.p2align	4, 0x90
__Z8TablFindP4listIPcES0_PiPFjS0_E:     ## @_Z8TablFindP4listIPcES0_PiPFjS0_E
Lfunc_begin15:
	.loc	1 186 0 is_stmt 1       ## /Users/macbook/Documents/GitHub/-Hash-Table/Hash/main.cpp:186:0
	.cfi_startproc
## BB#0:
	pushq	%rbp
Lcfi45:
	.cfi_def_cfa_offset 16
Lcfi46:
	.cfi_offset %rbp, -16
	movq	%rsp, %rbp
Lcfi47:
	.cfi_def_cfa_register %rbp
	subq	$48, %rsp
	movq	%rdi, -8(%rbp)
	movq	%rsi, -16(%rbp)
	movq	%rdx, -24(%rbp)
	movq	%rcx, -32(%rbp)
Ltmp110:
	.loc	1 188 22 prologue_end   ## /Users/macbook/Documents/GitHub/-Hash-Table/Hash/main.cpp:188:22
	movq	-32(%rbp), %rcx
	.loc	1 188 28 is_stmt 0      ## /Users/macbook/Documents/GitHub/-Hash-Table/Hash/main.cpp:188:28
	movq	-16(%rbp), %rdi
	.loc	1 188 22                ## /Users/macbook/Documents/GitHub/-Hash-Table/Hash/main.cpp:188:22
	callq	*%rcx
	.loc	1 188 36                ## /Users/macbook/Documents/GitHub/-Hash-Table/Hash/main.cpp:188:36
	movq	-24(%rbp), %rcx
	.loc	1 188 33                ## /Users/macbook/Documents/GitHub/-Hash-Table/Hash/main.cpp:188:33
	xorl	%edx, %edx
	divl	(%rcx)
	.loc	1 188 18                ## /Users/macbook/Documents/GitHub/-Hash-Table/Hash/main.cpp:188:18
	movl	%edx, -36(%rbp)
Ltmp111:
	.loc	1 189 10 is_stmt 1      ## /Users/macbook/Documents/GitHub/-Hash-Table/Hash/main.cpp:189:10
	movq	-8(%rbp), %rcx
	movl	-36(%rbp), %edx
	movl	%edx, %esi
	imulq	$40, %rsi, %rsi
	addq	%rsi, %rcx
	.loc	1 189 21 is_stmt 0      ## /Users/macbook/Documents/GitHub/-Hash-Table/Hash/main.cpp:189:21
	movq	24(%rcx), %rcx
	.loc	1 189 33                ## /Users/macbook/Documents/GitHub/-Hash-Table/Hash/main.cpp:189:33
	cmpq	$0, (%rcx)
Ltmp112:
	.loc	1 189 9                 ## /Users/macbook/Documents/GitHub/-Hash-Table/Hash/main.cpp:189:9
	jne	LBB15_2
## BB#1:
Ltmp113:
	.loc	1 190 35 is_stmt 1      ## /Users/macbook/Documents/GitHub/-Hash-Table/Hash/main.cpp:190:35
	movq	-16(%rbp), %rax
	.loc	1 190 10 is_stmt 0      ## /Users/macbook/Documents/GitHub/-Hash-Table/Hash/main.cpp:190:10
	movq	-8(%rbp), %rcx
	movl	-36(%rbp), %edx
	movl	%edx, %esi
	imulq	$40, %rsi, %rsi
	addq	%rsi, %rcx
	.loc	1 190 21                ## /Users/macbook/Documents/GitHub/-Hash-Table/Hash/main.cpp:190:21
	movq	24(%rcx), %rcx
	.loc	1 190 33                ## /Users/macbook/Documents/GitHub/-Hash-Table/Hash/main.cpp:190:33
	movq	%rax, (%rcx)
	.loc	1 190 9                 ## /Users/macbook/Documents/GitHub/-Hash-Table/Hash/main.cpp:190:9
	jmp	LBB15_5
LBB15_2:
Ltmp114:
	.loc	1 192 30 is_stmt 1      ## /Users/macbook/Documents/GitHub/-Hash-Table/Hash/main.cpp:192:30
	movq	-8(%rbp), %rax
	movl	-36(%rbp), %ecx
	movl	%ecx, %edx
	imulq	$40, %rdx, %rdx
	addq	%rdx, %rax
	.loc	1 192 41 is_stmt 0      ## /Users/macbook/Documents/GitHub/-Hash-Table/Hash/main.cpp:192:41
	movq	16(%rax), %rax
	.loc	1 192 10                ## /Users/macbook/Documents/GitHub/-Hash-Table/Hash/main.cpp:192:10
	movq	-8(%rbp), %rdx
	movl	-36(%rbp), %ecx
	movl	%ecx, %esi
	imulq	$40, %rsi, %rsi
	addq	%rsi, %rdx
	.loc	1 192 27                ## /Users/macbook/Documents/GitHub/-Hash-Table/Hash/main.cpp:192:27
	movq	%rax, 8(%rdx)
Ltmp115:
	.loc	1 194 22 is_stmt 1      ## /Users/macbook/Documents/GitHub/-Hash-Table/Hash/main.cpp:194:22
	movq	-16(%rbp), %rdi
	.loc	1 194 28 is_stmt 0      ## /Users/macbook/Documents/GitHub/-Hash-Table/Hash/main.cpp:194:28
	movq	-8(%rbp), %rax
	movl	-36(%rbp), %ecx
	movl	%ecx, %edx
	imulq	$40, %rdx, %rdx
	addq	%rdx, %rax
	.loc	1 194 39                ## /Users/macbook/Documents/GitHub/-Hash-Table/Hash/main.cpp:194:39
	movq	8(%rax), %rsi
	.loc	1 194 47                ## /Users/macbook/Documents/GitHub/-Hash-Table/Hash/main.cpp:194:47
	movq	-8(%rbp), %rax
	movl	-36(%rbp), %ecx
	movl	%ecx, %edx
	imulq	$40, %rdx, %rdx
	addq	%rdx, %rax
	.loc	1 194 58                ## /Users/macbook/Documents/GitHub/-Hash-Table/Hash/main.cpp:194:58
	movl	(%rax), %edx
	.loc	1 194 13                ## /Users/macbook/Documents/GitHub/-Hash-Table/Hash/main.cpp:194:13
	callq	__Z8strcheckPcP6cell_tIS_Ei
Ltmp116:
	.loc	1 194 13                ## /Users/macbook/Documents/GitHub/-Hash-Table/Hash/main.cpp:194:13
	testb	$1, %al
	jne	LBB15_3
	jmp	LBB15_4
LBB15_3:
Ltmp117:
	.loc	1 195 14 is_stmt 1      ## /Users/macbook/Documents/GitHub/-Hash-Table/Hash/main.cpp:195:14
	movq	-8(%rbp), %rax
	movl	-36(%rbp), %ecx
	movl	%ecx, %edx
	imulq	$40, %rdx, %rdx
	addq	%rdx, %rax
	.loc	1 195 32 is_stmt 0      ## /Users/macbook/Documents/GitHub/-Hash-Table/Hash/main.cpp:195:32
	movq	-8(%rbp), %rdx
	movl	-36(%rbp), %ecx
	movl	%ecx, %esi
	imulq	$40, %rsi, %rsi
	addq	%rsi, %rdx
	.loc	1 195 43                ## /Users/macbook/Documents/GitHub/-Hash-Table/Hash/main.cpp:195:43
	movq	24(%rdx), %rsi
	.loc	1 195 49                ## /Users/macbook/Documents/GitHub/-Hash-Table/Hash/main.cpp:195:49
	movq	-16(%rbp), %rdx
	.loc	1 195 25                ## /Users/macbook/Documents/GitHub/-Hash-Table/Hash/main.cpp:195:25
	movq	%rax, %rdi
	callq	__ZN4listIPcE5addbeEP6cell_tIS0_ES0_
	movl	%eax, -40(%rbp)         ## 4-byte Spill
Ltmp118:
LBB15_4:
	.loc	1 0 25                  ## /Users/macbook/Documents/GitHub/-Hash-Table/Hash/main.cpp:0:25
	jmp	LBB15_5
LBB15_5:
	xorl	%eax, %eax
	.loc	1 199 5 is_stmt 1       ## /Users/macbook/Documents/GitHub/-Hash-Table/Hash/main.cpp:199:5
	addq	$48, %rsp
	popq	%rbp
	retq
Ltmp119:
Lfunc_end15:
	.cfi_endproc
                                        ## -- End function
	.globl	__Z10PrintFilesPKcP4listIPcEPi ## -- Begin function _Z10PrintFilesPKcP4listIPcEPi
	.p2align	4, 0x90
__Z10PrintFilesPKcP4listIPcEPi:         ## @_Z10PrintFilesPKcP4listIPcEPi
Lfunc_begin16:
	.loc	1 252 0                 ## /Users/macbook/Documents/GitHub/-Hash-Table/Hash/main.cpp:252:0
	.cfi_startproc
## BB#0:
	pushq	%rbp
Lcfi48:
	.cfi_def_cfa_offset 16
Lcfi49:
	.cfi_offset %rbp, -16
	movq	%rsp, %rbp
Lcfi50:
	.cfi_def_cfa_register %rbp
	subq	$48, %rsp
	leaq	L_.str.3(%rip), %rax
	movq	%rdi, -8(%rbp)
	movq	%rsi, -16(%rbp)
	movq	%rdx, -24(%rbp)
Ltmp120:
	.loc	1 253 26 prologue_end   ## /Users/macbook/Documents/GitHub/-Hash-Table/Hash/main.cpp:253:26
	movq	-8(%rbp), %rdi
	.loc	1 253 19 is_stmt 0      ## /Users/macbook/Documents/GitHub/-Hash-Table/Hash/main.cpp:253:19
	movq	%rax, %rsi
	callq	_fopen
	.loc	1 253 11                ## /Users/macbook/Documents/GitHub/-Hash-Table/Hash/main.cpp:253:11
	movq	%rax, -32(%rbp)
	.loc	1 254 5 is_stmt 1       ## /Users/macbook/Documents/GitHub/-Hash-Table/Hash/main.cpp:254:5
	cmpq	$0, -32(%rbp)
	setne	%cl
	xorb	$-1, %cl
	testb	$1, %cl
	jne	LBB16_1
	jmp	LBB16_2
LBB16_1:
	.loc	1 0 5 is_stmt 0         ## /Users/macbook/Documents/GitHub/-Hash-Table/Hash/main.cpp:0:5
	leaq	L___func__._Z10PrintFilesPKcP4listIPcEPi(%rip), %rdi
	leaq	L_.str.1(%rip), %rsi
	movl	$254, %edx
	leaq	L_.str.4(%rip), %rcx
	.loc	1 254 5                 ## /Users/macbook/Documents/GitHub/-Hash-Table/Hash/main.cpp:254:5
	callq	___assert_rtn
LBB16_2:
	jmp	LBB16_3
LBB16_3:
Ltmp121:
	.loc	1 256 14 is_stmt 1      ## /Users/macbook/Documents/GitHub/-Hash-Table/Hash/main.cpp:256:14
	movl	$0, -36(%rbp)
LBB16_4:                                ## =>This Inner Loop Header: Depth=1
Ltmp122:
	.loc	1 256 21 is_stmt 0      ## /Users/macbook/Documents/GitHub/-Hash-Table/Hash/main.cpp:256:21
	movl	-36(%rbp), %eax
	.loc	1 256 26                ## /Users/macbook/Documents/GitHub/-Hash-Table/Hash/main.cpp:256:26
	movq	-24(%rbp), %rcx
	.loc	1 256 23                ## /Users/macbook/Documents/GitHub/-Hash-Table/Hash/main.cpp:256:23
	cmpl	(%rcx), %eax
Ltmp123:
	.loc	1 256 5                 ## /Users/macbook/Documents/GitHub/-Hash-Table/Hash/main.cpp:256:5
	jge	LBB16_10
## BB#5:                                ##   in Loop: Header=BB16_4 Depth=1
Ltmp124:
	.loc	1 257 30 is_stmt 1      ## /Users/macbook/Documents/GitHub/-Hash-Table/Hash/main.cpp:257:30
	movq	-16(%rbp), %rax
	movslq	-36(%rbp), %rcx
	imulq	$40, %rcx, %rcx
	addq	%rcx, %rax
	.loc	1 257 41 is_stmt 0      ## /Users/macbook/Documents/GitHub/-Hash-Table/Hash/main.cpp:257:41
	movq	16(%rax), %rax
	.loc	1 257 10                ## /Users/macbook/Documents/GitHub/-Hash-Table/Hash/main.cpp:257:10
	movq	-16(%rbp), %rcx
	movslq	-36(%rbp), %rdx
	imulq	$40, %rdx, %rdx
	addq	%rdx, %rcx
	.loc	1 257 27                ## /Users/macbook/Documents/GitHub/-Hash-Table/Hash/main.cpp:257:27
	movq	%rax, 8(%rcx)
Ltmp125:
	.loc	1 258 14 is_stmt 1      ## /Users/macbook/Documents/GitHub/-Hash-Table/Hash/main.cpp:258:14
	movq	-16(%rbp), %rax
	movslq	-36(%rbp), %rcx
	imulq	$40, %rcx, %rcx
	addq	%rcx, %rax
	.loc	1 258 25 is_stmt 0      ## /Users/macbook/Documents/GitHub/-Hash-Table/Hash/main.cpp:258:25
	movq	8(%rax), %rax
	.loc	1 258 38                ## /Users/macbook/Documents/GitHub/-Hash-Table/Hash/main.cpp:258:38
	cmpq	$0, (%rax)
Ltmp126:
	.loc	1 258 13                ## /Users/macbook/Documents/GitHub/-Hash-Table/Hash/main.cpp:258:13
	je	LBB16_7
## BB#6:                                ##   in Loop: Header=BB16_4 Depth=1
	.loc	1 0 13                  ## /Users/macbook/Documents/GitHub/-Hash-Table/Hash/main.cpp:0:13
	leaq	L_.str.5(%rip), %rsi
Ltmp127:
	.loc	1 259 21 is_stmt 1      ## /Users/macbook/Documents/GitHub/-Hash-Table/Hash/main.cpp:259:21
	movq	-32(%rbp), %rdi
	.loc	1 259 40 is_stmt 0      ## /Users/macbook/Documents/GitHub/-Hash-Table/Hash/main.cpp:259:40
	movl	-36(%rbp), %edx
	.loc	1 259 44                ## /Users/macbook/Documents/GitHub/-Hash-Table/Hash/main.cpp:259:44
	movq	-16(%rbp), %rax
	movslq	-36(%rbp), %rcx
	imulq	$40, %rcx, %rcx
	addq	%rcx, %rax
	.loc	1 259 55                ## /Users/macbook/Documents/GitHub/-Hash-Table/Hash/main.cpp:259:55
	movl	(%rax), %ecx
	.loc	1 259 13                ## /Users/macbook/Documents/GitHub/-Hash-Table/Hash/main.cpp:259:13
	movb	$0, %al
	callq	_fprintf
	movl	%eax, -40(%rbp)         ## 4-byte Spill
	jmp	LBB16_8
LBB16_7:                                ##   in Loop: Header=BB16_4 Depth=1
	.loc	1 0 13                  ## /Users/macbook/Documents/GitHub/-Hash-Table/Hash/main.cpp:0:13
	leaq	L_.str.6(%rip), %rsi
	.loc	1 261 21 is_stmt 1      ## /Users/macbook/Documents/GitHub/-Hash-Table/Hash/main.cpp:261:21
	movq	-32(%rbp), %rdi
	.loc	1 261 39 is_stmt 0      ## /Users/macbook/Documents/GitHub/-Hash-Table/Hash/main.cpp:261:39
	movl	-36(%rbp), %edx
	.loc	1 261 13                ## /Users/macbook/Documents/GitHub/-Hash-Table/Hash/main.cpp:261:13
	movb	$0, %al
	callq	_fprintf
	movl	%eax, -44(%rbp)         ## 4-byte Spill
Ltmp128:
LBB16_8:                                ##   in Loop: Header=BB16_4 Depth=1
	.loc	1 262 5 is_stmt 1       ## /Users/macbook/Documents/GitHub/-Hash-Table/Hash/main.cpp:262:5
	jmp	LBB16_9
Ltmp129:
LBB16_9:                                ##   in Loop: Header=BB16_4 Depth=1
	.loc	1 256 33                ## /Users/macbook/Documents/GitHub/-Hash-Table/Hash/main.cpp:256:33
	movl	-36(%rbp), %eax
	addl	$1, %eax
	movl	%eax, -36(%rbp)
	.loc	1 256 5 is_stmt 0       ## /Users/macbook/Documents/GitHub/-Hash-Table/Hash/main.cpp:256:5
	jmp	LBB16_4
Ltmp130:
LBB16_10:
	.loc	1 264 12 is_stmt 1      ## /Users/macbook/Documents/GitHub/-Hash-Table/Hash/main.cpp:264:12
	movq	-32(%rbp), %rdi
	.loc	1 264 5 is_stmt 0       ## /Users/macbook/Documents/GitHub/-Hash-Table/Hash/main.cpp:264:5
	callq	_fclose
	xorl	%ecx, %ecx
	.loc	1 265 5 is_stmt 1       ## /Users/macbook/Documents/GitHub/-Hash-Table/Hash/main.cpp:265:5
	movl	%eax, -48(%rbp)         ## 4-byte Spill
	movl	%ecx, %eax
	addq	$48, %rsp
	popq	%rbp
	retq
Ltmp131:
Lfunc_end16:
	.cfi_endproc
                                        ## -- End function
	.globl	__Z4frolii              ## -- Begin function _Z4frolii
	.p2align	4, 0x90
__Z4frolii:                             ## @_Z4frolii
Lfunc_begin17:
	.loc	1 176 0                 ## /Users/macbook/Documents/GitHub/-Hash-Table/Hash/main.cpp:176:0
	.cfi_startproc
## BB#0:
	pushq	%rbp
Lcfi51:
	.cfi_def_cfa_offset 16
Lcfi52:
	.cfi_offset %rbp, -16
	movq	%rsp, %rbp
Lcfi53:
	.cfi_def_cfa_register %rbp
	movl	$2, %eax
	movl	%edi, -8(%rbp)
	movl	%esi, -12(%rbp)
Ltmp132:
	.loc	1 177 10 prologue_end   ## /Users/macbook/Documents/GitHub/-Hash-Table/Hash/main.cpp:177:10
	movl	-8(%rbp), %esi
	.loc	1 177 12 is_stmt 0      ## /Users/macbook/Documents/GitHub/-Hash-Table/Hash/main.cpp:177:12
	movl	%eax, -16(%rbp)         ## 4-byte Spill
	movl	%esi, %eax
	cltd
	movl	-16(%rbp), %esi         ## 4-byte Reload
	idivl	%esi
	.loc	1 177 17                ## /Users/macbook/Documents/GitHub/-Hash-Table/Hash/main.cpp:177:17
	cmpl	$1, %edx
Ltmp133:
	.loc	1 177 9                 ## /Users/macbook/Documents/GitHub/-Hash-Table/Hash/main.cpp:177:9
	jne	LBB17_2
## BB#1:
Ltmp134:
	.loc	1 179 18 is_stmt 1      ## /Users/macbook/Documents/GitHub/-Hash-Table/Hash/main.cpp:179:18
	movl	-8(%rbp), %eax
	.loc	1 179 23 is_stmt 0      ## /Users/macbook/Documents/GitHub/-Hash-Table/Hash/main.cpp:179:23
	movl	-12(%rbp), %ecx
                                        ## kill: %CL<def> %ECX<kill>
	.loc	1 179 20                ## /Users/macbook/Documents/GitHub/-Hash-Table/Hash/main.cpp:179:20
	shll	%cl, %eax
	.loc	1 179 28                ## /Users/macbook/Documents/GitHub/-Hash-Table/Hash/main.cpp:179:28
	orl	$128, %eax
	.loc	1 179 9                 ## /Users/macbook/Documents/GitHub/-Hash-Table/Hash/main.cpp:179:9
	movl	%eax, -4(%rbp)
	jmp	LBB17_3
Ltmp135:
LBB17_2:
	.loc	1 181 12 is_stmt 1      ## /Users/macbook/Documents/GitHub/-Hash-Table/Hash/main.cpp:181:12
	movl	-8(%rbp), %eax
	.loc	1 181 17 is_stmt 0      ## /Users/macbook/Documents/GitHub/-Hash-Table/Hash/main.cpp:181:17
	movl	-12(%rbp), %ecx
                                        ## kill: %CL<def> %ECX<kill>
	.loc	1 181 14                ## /Users/macbook/Documents/GitHub/-Hash-Table/Hash/main.cpp:181:14
	shll	%cl, %eax
	.loc	1 181 5                 ## /Users/macbook/Documents/GitHub/-Hash-Table/Hash/main.cpp:181:5
	movl	%eax, -4(%rbp)
LBB17_3:
	.loc	1 182 1 is_stmt 1       ## /Users/macbook/Documents/GitHub/-Hash-Table/Hash/main.cpp:182:1
	movl	-4(%rbp), %eax
	popq	%rbp
	retq
Ltmp136:
Lfunc_end17:
	.cfi_endproc
                                        ## -- End function
	.globl	__Z8strcheckPcP6cell_tIS_Ei ## -- Begin function _Z8strcheckPcP6cell_tIS_Ei
	.p2align	4, 0x90
__Z8strcheckPcP6cell_tIS_Ei:            ## @_Z8strcheckPcP6cell_tIS_Ei
Lfunc_begin18:
	.loc	1 203 0                 ## /Users/macbook/Documents/GitHub/-Hash-Table/Hash/main.cpp:203:0
	.cfi_startproc
## BB#0:
	pushq	%rbp
Lcfi54:
	.cfi_def_cfa_offset 16
Lcfi55:
	.cfi_offset %rbp, -16
	movq	%rsp, %rbp
Lcfi56:
	.cfi_def_cfa_register %rbp
	movq	%rdi, -16(%rbp)
	movq	%rsi, -24(%rbp)
	movl	%edx, -28(%rbp)
Ltmp137:
	.loc	1 204 9 prologue_end    ## /Users/macbook/Documents/GitHub/-Hash-Table/Hash/main.cpp:204:9
	movl	$0, -32(%rbp)
Ltmp138:
	.loc	1 206 14                ## /Users/macbook/Documents/GitHub/-Hash-Table/Hash/main.cpp:206:14
	movl	$0, -36(%rbp)
LBB18_1:                                ## =>This Inner Loop Header: Depth=1
Ltmp139:
	.loc	1 206 26 is_stmt 0      ## /Users/macbook/Documents/GitHub/-Hash-Table/Hash/main.cpp:206:26
	cmpq	$0, -24(%rbp)
Ltmp140:
	.loc	1 206 5                 ## /Users/macbook/Documents/GitHub/-Hash-Table/Hash/main.cpp:206:5
	je	LBB18_6
## BB#2:                                ##   in Loop: Header=BB18_1 Depth=1
Ltmp141:
	.loc	1 208 14 is_stmt 1      ## /Users/macbook/Documents/GitHub/-Hash-Table/Hash/main.cpp:208:14
	movl	$0, -32(%rbp)
	.loc	1 224 29                ## /Users/macbook/Documents/GitHub/-Hash-Table/Hash/main.cpp:224:29
	movq	-16(%rbp), %rsi
	.loc	1 224 45 is_stmt 0      ## /Users/macbook/Documents/GitHub/-Hash-Table/Hash/main.cpp:224:45
	movq	-24(%rbp), %rax
	.loc	1 224 51                ## /Users/macbook/Documents/GitHub/-Hash-Table/Hash/main.cpp:224:51
	movq	(%rax), %rdi
	.loc	1 209 9 is_stmt 1       ## /Users/macbook/Documents/GitHub/-Hash-Table/Hash/main.cpp:209:9
	## InlineAsm Start
	xorq	%rax, %rax
L1:
	lodsb	(%rsi), %al
	testb	%al, %al
	je	EQU
	xorb	(%rdi), %al
	jne	EXIT
	incq	%rdi
	jmp	L1
EQU:
	xorb	(%rdi), %al
EXIT:
	movl	%eax, %ecx


	## InlineAsm End
	movl	%ecx, -32(%rbp)
Ltmp142:
	.loc	1 227 18                ## /Users/macbook/Documents/GitHub/-Hash-Table/Hash/main.cpp:227:18
	cmpl	$0, -32(%rbp)
Ltmp143:
	.loc	1 227 13 is_stmt 0      ## /Users/macbook/Documents/GitHub/-Hash-Table/Hash/main.cpp:227:13
	jne	LBB18_4
## BB#3:
Ltmp144:
	.loc	1 228 13 is_stmt 1      ## /Users/macbook/Documents/GitHub/-Hash-Table/Hash/main.cpp:228:13
	movb	$0, -1(%rbp)
	jmp	LBB18_7
Ltmp145:
LBB18_4:                                ##   in Loop: Header=BB18_1 Depth=1
	.loc	1 229 16                ## /Users/macbook/Documents/GitHub/-Hash-Table/Hash/main.cpp:229:16
	movq	-24(%rbp), %rax
	.loc	1 229 22 is_stmt 0      ## /Users/macbook/Documents/GitHub/-Hash-Table/Hash/main.cpp:229:22
	movq	8(%rax), %rax
	.loc	1 229 14                ## /Users/macbook/Documents/GitHub/-Hash-Table/Hash/main.cpp:229:14
	movq	%rax, -24(%rbp)
Ltmp146:
## BB#5:                                ##   in Loop: Header=BB18_1 Depth=1
	.loc	1 206 39 is_stmt 1      ## /Users/macbook/Documents/GitHub/-Hash-Table/Hash/main.cpp:206:39
	movl	-36(%rbp), %eax
	addl	$1, %eax
	movl	%eax, -36(%rbp)
	.loc	1 206 5 is_stmt 0       ## /Users/macbook/Documents/GitHub/-Hash-Table/Hash/main.cpp:206:5
	jmp	LBB18_1
Ltmp147:
LBB18_6:
	.loc	1 244 5 is_stmt 1       ## /Users/macbook/Documents/GitHub/-Hash-Table/Hash/main.cpp:244:5
	movb	$1, -1(%rbp)
LBB18_7:
	.loc	1 245 1                 ## /Users/macbook/Documents/GitHub/-Hash-Table/Hash/main.cpp:245:1
	movb	-1(%rbp), %al
	andb	$1, %al
	movzbl	%al, %eax
	popq	%rbp
	retq
Ltmp148:
Lfunc_end18:
	.cfi_endproc
                                        ## -- End function
	.globl	__ZN4listIPcE5addbeEP6cell_tIS0_ES0_ ## -- Begin function _ZN4listIPcE5addbeEP6cell_tIS0_ES0_
	.weak_definition	__ZN4listIPcE5addbeEP6cell_tIS0_ES0_
	.p2align	4, 0x90
__ZN4listIPcE5addbeEP6cell_tIS0_ES0_:   ## @_ZN4listIPcE5addbeEP6cell_tIS0_ES0_
Lfunc_begin19:
	.loc	49 116 0                ## /Users/macbook/Documents/GitHub/-Hash-Table/Hash/../resources/List.h:116:0
	.cfi_startproc
	.cfi_personality 155, ___gxx_personality_v0
	.cfi_lsda 16, Lexception1
## BB#0:
	pushq	%rbp
Lcfi57:
	.cfi_def_cfa_offset 16
Lcfi58:
	.cfi_offset %rbp, -16
	movq	%rsp, %rbp
Lcfi59:
	.cfi_def_cfa_register %rbp
	subq	$128, %rsp
	movq	%rdi, -8(%rbp)
	movq	%rsi, -16(%rbp)
	movq	%rdx, -24(%rbp)
	movq	-8(%rbp), %rdx
Ltmp152:
	.loc	49 117 5 prologue_end   ## /Users/macbook/Documents/GitHub/-Hash-Table/Hash/../resources/List.h:117:5
	cmpq	$0, -16(%rbp)
Ltmp153:
	.loc	49 117 5 is_stmt 0      ## /Users/macbook/Documents/GitHub/-Hash-Table/Hash/../resources/List.h:117:5
	movq	%rdx, -72(%rbp)         ## 8-byte Spill
	je	LBB19_2
## BB#1:
Ltmp154:
	.loc	49 117 5                ## /Users/macbook/Documents/GitHub/-Hash-Table/Hash/../resources/List.h:117:5
	jmp	LBB19_6
Ltmp155:
LBB19_2:
	.loc	49 0 5                  ## /Users/macbook/Documents/GitHub/-Hash-Table/Hash/../resources/List.h:0:5
	leaq	L_.str.8(%rip), %rdi
	leaq	L_.str.9(%rip), %rsi
Ltmp156:
	.loc	49 117 5                ## /Users/macbook/Documents/GitHub/-Hash-Table/Hash/../resources/List.h:117:5
	callq	_fopen
	leaq	L_.str.10(%rip), %rsi
	movq	%rax, -32(%rbp)
	movq	-32(%rbp), %rdi
	movb	$0, %al
	callq	_fprintf
	leaq	L_.str.11(%rip), %rsi
	leaq	L_.str.15(%rip), %rdx
	leaq	L_.str.13(%rip), %rcx
	movl	$117, %r8d
	movq	-32(%rbp), %rdi
	movl	%eax, -76(%rbp)         ## 4-byte Spill
	movb	$0, %al
	callq	_fprintf
	leaq	L_.str.14(%rip), %rsi
	movq	-32(%rbp), %rdi
	movl	%eax, -80(%rbp)         ## 4-byte Spill
	movb	$0, %al
	callq	_fprintf
	movq	-32(%rbp), %rdi
	movl	%eax, -84(%rbp)         ## 4-byte Spill
	callq	_fclose
	cmpq	$0, -16(%rbp)
	setne	%r9b
	xorb	$-1, %r9b
	testb	$1, %r9b
	movl	%eax, -88(%rbp)         ## 4-byte Spill
	jne	LBB19_3
	jmp	LBB19_4
LBB19_3:
	.loc	49 0 5                  ## /Users/macbook/Documents/GitHub/-Hash-Table/Hash/../resources/List.h:0:5
	leaq	L___func__._ZN4listIPcE5addbeEP6cell_tIS0_ES0_(%rip), %rdi
	leaq	L_.str.13(%rip), %rsi
	movl	$117, %edx
	leaq	L_.str.15(%rip), %rcx
	.loc	49 117 5                ## /Users/macbook/Documents/GitHub/-Hash-Table/Hash/../resources/List.h:117:5
	callq	___assert_rtn
LBB19_4:
	jmp	LBB19_5
Ltmp157:
LBB19_5:
	.loc	49 0 5                  ## /Users/macbook/Documents/GitHub/-Hash-Table/Hash/../resources/List.h:0:5
	jmp	LBB19_6
LBB19_6:
	.loc	49 119 32 is_stmt 1     ## /Users/macbook/Documents/GitHub/-Hash-Table/Hash/../resources/List.h:119:32
	movl	$24, %eax
	movl	%eax, %edi
	callq	__Znwm
	movq	%rax, %rdi
	movq	%rax, %rcx
Ltmp149:
	.loc	49 119 36 is_stmt 0     ## /Users/macbook/Documents/GitHub/-Hash-Table/Hash/../resources/List.h:119:36
	xorl	%edx, %edx
	movl	%edx, %esi
	movq	%rdi, -96(%rbp)         ## 8-byte Spill
	movq	%rax, %rdi
	movq	%rcx, -104(%rbp)        ## 8-byte Spill
	callq	__ZN6cell_tIPcEC1ES0_
Ltmp150:
	jmp	LBB19_7
LBB19_7:
	.loc	49 119 21               ## /Users/macbook/Documents/GitHub/-Hash-Table/Hash/../resources/List.h:119:21
	movq	-104(%rbp), %rax        ## 8-byte Reload
	movq	%rax, -40(%rbp)
Ltmp158:
	.loc	49 120 18 is_stmt 1     ## /Users/macbook/Documents/GitHub/-Hash-Table/Hash/../resources/List.h:120:18
	cmpq	$0, -40(%rbp)
Ltmp159:
	.loc	49 120 9 is_stmt 0      ## /Users/macbook/Documents/GitHub/-Hash-Table/Hash/../resources/List.h:120:9
	jne	LBB19_16
## BB#8:
Ltmp160:
	.loc	49 121 9 is_stmt 1      ## /Users/macbook/Documents/GitHub/-Hash-Table/Hash/../resources/List.h:121:9
	cmpq	$0, -40(%rbp)
Ltmp161:
	.loc	49 121 9 is_stmt 0      ## /Users/macbook/Documents/GitHub/-Hash-Table/Hash/../resources/List.h:121:9
	je	LBB19_11
## BB#9:
Ltmp162:
	.loc	49 121 9                ## /Users/macbook/Documents/GitHub/-Hash-Table/Hash/../resources/List.h:121:9
	jmp	LBB19_15
Ltmp163:
LBB19_10:
Ltmp151:
	.loc	49 136 1 is_stmt 1      ## /Users/macbook/Documents/GitHub/-Hash-Table/Hash/../resources/List.h:136:1
	movl	%edx, %ecx
	movq	%rax, -48(%rbp)
	movl	%ecx, -52(%rbp)
	.loc	49 119 32               ## /Users/macbook/Documents/GitHub/-Hash-Table/Hash/../resources/List.h:119:32
	movq	-96(%rbp), %rdi         ## 8-byte Reload
	callq	__ZdlPv
	jmp	LBB19_20
LBB19_11:
	.loc	49 0 32 is_stmt 0       ## /Users/macbook/Documents/GitHub/-Hash-Table/Hash/../resources/List.h:0:32
	leaq	L_.str.8(%rip), %rdi
	leaq	L_.str.9(%rip), %rsi
Ltmp164:
	.loc	49 121 9 is_stmt 1      ## /Users/macbook/Documents/GitHub/-Hash-Table/Hash/../resources/List.h:121:9
	callq	_fopen
	leaq	L_.str.10(%rip), %rsi
	movq	%rax, -64(%rbp)
	movq	-64(%rbp), %rdi
	movb	$0, %al
	callq	_fprintf
	leaq	L_.str.11(%rip), %rsi
	leaq	L_.str.16(%rip), %rdx
	leaq	L_.str.13(%rip), %rcx
	movl	$121, %r8d
	movq	-64(%rbp), %rdi
	movl	%eax, -108(%rbp)        ## 4-byte Spill
	movb	$0, %al
	callq	_fprintf
	leaq	L_.str.14(%rip), %rsi
	movq	-64(%rbp), %rdi
	movl	%eax, -112(%rbp)        ## 4-byte Spill
	movb	$0, %al
	callq	_fprintf
	movq	-64(%rbp), %rdi
	movl	%eax, -116(%rbp)        ## 4-byte Spill
	callq	_fclose
	cmpq	$0, -40(%rbp)
	setne	%r9b
	xorb	$-1, %r9b
	testb	$1, %r9b
	movl	%eax, -120(%rbp)        ## 4-byte Spill
	jne	LBB19_12
	jmp	LBB19_13
LBB19_12:
	.loc	49 0 9 is_stmt 0        ## /Users/macbook/Documents/GitHub/-Hash-Table/Hash/../resources/List.h:0:9
	leaq	L___func__._ZN4listIPcE5addbeEP6cell_tIS0_ES0_(%rip), %rdi
	leaq	L_.str.13(%rip), %rsi
	movl	$121, %edx
	leaq	L_.str.16(%rip), %rcx
	.loc	49 121 9                ## /Users/macbook/Documents/GitHub/-Hash-Table/Hash/../resources/List.h:121:9
	callq	___assert_rtn
LBB19_13:
	jmp	LBB19_14
Ltmp165:
LBB19_14:
	.loc	49 0 9                  ## /Users/macbook/Documents/GitHub/-Hash-Table/Hash/../resources/List.h:0:9
	jmp	LBB19_15
LBB19_15:
	.loc	49 121 9                ## /Users/macbook/Documents/GitHub/-Hash-Table/Hash/../resources/List.h:121:9
	jmp	LBB19_16
Ltmp166:
LBB19_16:
	.loc	49 123 10 is_stmt 1     ## /Users/macbook/Documents/GitHub/-Hash-Table/Hash/../resources/List.h:123:10
	movq	-72(%rbp), %rax         ## 8-byte Reload
	movl	(%rax), %ecx
	addl	$1, %ecx
	movl	%ecx, (%rax)
	.loc	49 124 23               ## /Users/macbook/Documents/GitHub/-Hash-Table/Hash/../resources/List.h:124:23
	movq	-24(%rbp), %rdx
	.loc	49 124 5 is_stmt 0      ## /Users/macbook/Documents/GitHub/-Hash-Table/Hash/../resources/List.h:124:5
	movq	-40(%rbp), %rsi
	.loc	49 124 21               ## /Users/macbook/Documents/GitHub/-Hash-Table/Hash/../resources/List.h:124:21
	movq	%rdx, (%rsi)
	.loc	49 125 23 is_stmt 1     ## /Users/macbook/Documents/GitHub/-Hash-Table/Hash/../resources/List.h:125:23
	movq	-16(%rbp), %rdx
	.loc	49 125 5 is_stmt 0      ## /Users/macbook/Documents/GitHub/-Hash-Table/Hash/../resources/List.h:125:5
	movq	-40(%rbp), %rsi
	.loc	49 125 21               ## /Users/macbook/Documents/GitHub/-Hash-Table/Hash/../resources/List.h:125:21
	movq	%rdx, 16(%rsi)
	.loc	49 126 23 is_stmt 1     ## /Users/macbook/Documents/GitHub/-Hash-Table/Hash/../resources/List.h:126:23
	movq	-16(%rbp), %rdx
	.loc	49 126 31 is_stmt 0     ## /Users/macbook/Documents/GitHub/-Hash-Table/Hash/../resources/List.h:126:31
	movq	8(%rdx), %rdx
	.loc	49 126 5                ## /Users/macbook/Documents/GitHub/-Hash-Table/Hash/../resources/List.h:126:5
	movq	-40(%rbp), %rsi
	.loc	49 126 21               ## /Users/macbook/Documents/GitHub/-Hash-Table/Hash/../resources/List.h:126:21
	movq	%rdx, 8(%rsi)
	.loc	49 128 32 is_stmt 1     ## /Users/macbook/Documents/GitHub/-Hash-Table/Hash/../resources/List.h:128:32
	movq	-40(%rbp), %rdx
	.loc	49 128 6 is_stmt 0      ## /Users/macbook/Documents/GitHub/-Hash-Table/Hash/../resources/List.h:128:6
	movq	-40(%rbp), %rsi
	.loc	49 128 16               ## /Users/macbook/Documents/GitHub/-Hash-Table/Hash/../resources/List.h:128:16
	movq	16(%rsi), %rsi
	.loc	49 128 30               ## /Users/macbook/Documents/GitHub/-Hash-Table/Hash/../resources/List.h:128:30
	movq	%rdx, 8(%rsi)
Ltmp167:
	.loc	49 129 9 is_stmt 1      ## /Users/macbook/Documents/GitHub/-Hash-Table/Hash/../resources/List.h:129:9
	movq	-40(%rbp), %rdx
	.loc	49 129 25 is_stmt 0     ## /Users/macbook/Documents/GitHub/-Hash-Table/Hash/../resources/List.h:129:25
	cmpq	$0, 8(%rdx)
Ltmp168:
	.loc	49 129 9                ## /Users/macbook/Documents/GitHub/-Hash-Table/Hash/../resources/List.h:129:9
	je	LBB19_18
## BB#17:
Ltmp169:
	.loc	49 130 36 is_stmt 1     ## /Users/macbook/Documents/GitHub/-Hash-Table/Hash/../resources/List.h:130:36
	movq	-40(%rbp), %rax
	.loc	49 130 10 is_stmt 0     ## /Users/macbook/Documents/GitHub/-Hash-Table/Hash/../resources/List.h:130:10
	movq	-40(%rbp), %rcx
	.loc	49 130 20               ## /Users/macbook/Documents/GitHub/-Hash-Table/Hash/../resources/List.h:130:20
	movq	8(%rcx), %rcx
	.loc	49 130 34               ## /Users/macbook/Documents/GitHub/-Hash-Table/Hash/../resources/List.h:130:34
	movq	%rax, 16(%rcx)
	.loc	49 130 9                ## /Users/macbook/Documents/GitHub/-Hash-Table/Hash/../resources/List.h:130:9
	jmp	LBB19_19
LBB19_18:
	.loc	49 132 16 is_stmt 1     ## /Users/macbook/Documents/GitHub/-Hash-Table/Hash/../resources/List.h:132:16
	movq	-40(%rbp), %rax
	.loc	49 132 14 is_stmt 0     ## /Users/macbook/Documents/GitHub/-Hash-Table/Hash/../resources/List.h:132:14
	movq	-72(%rbp), %rcx         ## 8-byte Reload
	movq	%rax, 24(%rcx)
Ltmp170:
LBB19_19:
	.loc	49 0 14                 ## /Users/macbook/Documents/GitHub/-Hash-Table/Hash/../resources/List.h:0:14
	xorl	%eax, %eax
	.loc	49 135 5 is_stmt 1      ## /Users/macbook/Documents/GitHub/-Hash-Table/Hash/../resources/List.h:135:5
	addq	$128, %rsp
	popq	%rbp
	retq
LBB19_20:
	.loc	49 119 32               ## /Users/macbook/Documents/GitHub/-Hash-Table/Hash/../resources/List.h:119:32
	movq	-48(%rbp), %rdi
	callq	__Unwind_Resume
Ltmp171:
Lfunc_end19:
	.cfi_endproc
	.section	__TEXT,__gcc_except_tab
	.p2align	2
GCC_except_table19:
Lexception1:
	.byte	255                     ## @LPStart Encoding = omit
	.byte	155                     ## @TType Encoding = indirect pcrel sdata4
	.byte	41                      ## @TType base offset
	.byte	3                       ## Call site Encoding = udata4
	.byte	39                      ## Call site table length
Lset10 = Lfunc_begin19-Lfunc_begin19    ## >> Call Site 1 <<
	.long	Lset10
Lset11 = Ltmp149-Lfunc_begin19          ##   Call between Lfunc_begin19 and Ltmp149
	.long	Lset11
	.long	0                       ##     has no landing pad
	.byte	0                       ##   On action: cleanup
Lset12 = Ltmp149-Lfunc_begin19          ## >> Call Site 2 <<
	.long	Lset12
Lset13 = Ltmp150-Ltmp149                ##   Call between Ltmp149 and Ltmp150
	.long	Lset13
Lset14 = Ltmp151-Lfunc_begin19          ##     jumps to Ltmp151
	.long	Lset14
	.byte	0                       ##   On action: cleanup
Lset15 = Ltmp150-Lfunc_begin19          ## >> Call Site 3 <<
	.long	Lset15
Lset16 = Lfunc_end19-Ltmp150            ##   Call between Ltmp150 and Lfunc_end19
	.long	Lset16
	.long	0                       ##     has no landing pad
	.byte	0                       ##   On action: cleanup
	.p2align	2
                                        ## -- End function
	.section	__TEXT,__text,regular,pure_instructions
	.private_extern	__Z8__istypeim  ## -- Begin function _Z8__istypeim
	.globl	__Z8__istypeim
	.weak_definition	__Z8__istypeim
	.p2align	4, 0x90
__Z8__istypeim:                         ## @_Z8__istypeim
Lfunc_begin20:
	.loc	31 154 0                ## /Applications/Xcode.app/Contents/Developer/Platforms/MacOSX.platform/Developer/SDKs/MacOSX10.13.sdk/usr/include/_ctype.h:154:0
	.cfi_startproc
## BB#0:
	pushq	%rbp
Lcfi60:
	.cfi_def_cfa_offset 16
Lcfi61:
	.cfi_offset %rbp, -16
	movq	%rsp, %rbp
Lcfi62:
	.cfi_def_cfa_register %rbp
	subq	$32, %rsp
	movl	%edi, -4(%rbp)
	movq	%rsi, -16(%rbp)
Ltmp172:
	.loc	31 158 18 prologue_end  ## /Applications/Xcode.app/Contents/Developer/Platforms/MacOSX.platform/Developer/SDKs/MacOSX10.13.sdk/usr/include/_ctype.h:158:18
	movl	-4(%rbp), %edi
	.loc	31 158 10 is_stmt 0     ## /Applications/Xcode.app/Contents/Developer/Platforms/MacOSX.platform/Developer/SDKs/MacOSX10.13.sdk/usr/include/_ctype.h:158:10
	callq	__Z7isasciii
	cmpl	$0, %eax
	je	LBB20_2
## BB#1:
	.loc	31 0 10                 ## /Applications/Xcode.app/Contents/Developer/Platforms/MacOSX.platform/Developer/SDKs/MacOSX10.13.sdk/usr/include/_ctype.h:0:10
	movq	__DefaultRuneLocale@GOTPCREL(%rip), %rax
	.loc	31 158 27               ## /Applications/Xcode.app/Contents/Developer/Platforms/MacOSX.platform/Developer/SDKs/MacOSX10.13.sdk/usr/include/_ctype.h:158:27
	movslq	-4(%rbp), %rcx
	movl	60(%rax,%rcx,4), %edx
	movl	%edx, %eax
	.loc	31 158 61               ## /Applications/Xcode.app/Contents/Developer/Platforms/MacOSX.platform/Developer/SDKs/MacOSX10.13.sdk/usr/include/_ctype.h:158:61
	andq	-16(%rbp), %rax
	.loc	31 158 26               ## /Applications/Xcode.app/Contents/Developer/Platforms/MacOSX.platform/Developer/SDKs/MacOSX10.13.sdk/usr/include/_ctype.h:158:26
	cmpq	$0, %rax
	setne	%sil
	.loc	31 158 25               ## /Applications/Xcode.app/Contents/Developer/Platforms/MacOSX.platform/Developer/SDKs/MacOSX10.13.sdk/usr/include/_ctype.h:158:25
	xorb	$-1, %sil
	.loc	31 158 24               ## /Applications/Xcode.app/Contents/Developer/Platforms/MacOSX.platform/Developer/SDKs/MacOSX10.13.sdk/usr/include/_ctype.h:158:24
	xorb	$-1, %sil
	.loc	31 158 10               ## /Applications/Xcode.app/Contents/Developer/Platforms/MacOSX.platform/Developer/SDKs/MacOSX10.13.sdk/usr/include/_ctype.h:158:10
	movb	%sil, -17(%rbp)         ## 1-byte Spill
	jmp	LBB20_3
LBB20_2:
	.loc	31 159 18 is_stmt 1     ## /Applications/Xcode.app/Contents/Developer/Platforms/MacOSX.platform/Developer/SDKs/MacOSX10.13.sdk/usr/include/_ctype.h:159:18
	movl	-4(%rbp), %edi
	.loc	31 159 22 is_stmt 0     ## /Applications/Xcode.app/Contents/Developer/Platforms/MacOSX.platform/Developer/SDKs/MacOSX10.13.sdk/usr/include/_ctype.h:159:22
	movq	-16(%rbp), %rsi
	.loc	31 159 7                ## /Applications/Xcode.app/Contents/Developer/Platforms/MacOSX.platform/Developer/SDKs/MacOSX10.13.sdk/usr/include/_ctype.h:159:7
	callq	___maskrune
	cmpl	$0, %eax
	setne	%cl
	.loc	31 159 6                ## /Applications/Xcode.app/Contents/Developer/Platforms/MacOSX.platform/Developer/SDKs/MacOSX10.13.sdk/usr/include/_ctype.h:159:6
	xorb	$-1, %cl
	.loc	31 159 5                ## /Applications/Xcode.app/Contents/Developer/Platforms/MacOSX.platform/Developer/SDKs/MacOSX10.13.sdk/usr/include/_ctype.h:159:5
	xorb	$-1, %cl
	movb	%cl, -17(%rbp)          ## 1-byte Spill
LBB20_3:
	.loc	31 158 10 is_stmt 1     ## /Applications/Xcode.app/Contents/Developer/Platforms/MacOSX.platform/Developer/SDKs/MacOSX10.13.sdk/usr/include/_ctype.h:158:10
	movb	-17(%rbp), %al          ## 1-byte Reload
	.loc	31 158 9 is_stmt 0      ## /Applications/Xcode.app/Contents/Developer/Platforms/MacOSX.platform/Developer/SDKs/MacOSX10.13.sdk/usr/include/_ctype.h:158:9
	andb	$1, %al
	movzbl	%al, %eax
	.loc	31 158 2                ## /Applications/Xcode.app/Contents/Developer/Platforms/MacOSX.platform/Developer/SDKs/MacOSX10.13.sdk/usr/include/_ctype.h:158:2
	addq	$32, %rsp
	popq	%rbp
	retq
Ltmp173:
Lfunc_end20:
	.cfi_endproc
                                        ## -- End function
	.private_extern	__Z7isasciii    ## -- Begin function _Z7isasciii
	.globl	__Z7isasciii
	.weak_definition	__Z7isasciii
	.p2align	4, 0x90
__Z7isasciii:                           ## @_Z7isasciii
Lfunc_begin21:
	.loc	31 136 0 is_stmt 1      ## /Applications/Xcode.app/Contents/Developer/Platforms/MacOSX.platform/Developer/SDKs/MacOSX10.13.sdk/usr/include/_ctype.h:136:0
	.cfi_startproc
## BB#0:
	pushq	%rbp
Lcfi63:
	.cfi_def_cfa_offset 16
Lcfi64:
	.cfi_offset %rbp, -16
	movq	%rsp, %rbp
Lcfi65:
	.cfi_def_cfa_register %rbp
	movl	%edi, -4(%rbp)
Ltmp174:
	.loc	31 137 11 prologue_end  ## /Applications/Xcode.app/Contents/Developer/Platforms/MacOSX.platform/Developer/SDKs/MacOSX10.13.sdk/usr/include/_ctype.h:137:11
	movl	-4(%rbp), %edi
	.loc	31 137 14 is_stmt 0     ## /Applications/Xcode.app/Contents/Developer/Platforms/MacOSX.platform/Developer/SDKs/MacOSX10.13.sdk/usr/include/_ctype.h:137:14
	andl	$-128, %edi
	.loc	31 137 23               ## /Applications/Xcode.app/Contents/Developer/Platforms/MacOSX.platform/Developer/SDKs/MacOSX10.13.sdk/usr/include/_ctype.h:137:23
	cmpl	$0, %edi
	sete	%al
	.loc	31 137 9                ## /Applications/Xcode.app/Contents/Developer/Platforms/MacOSX.platform/Developer/SDKs/MacOSX10.13.sdk/usr/include/_ctype.h:137:9
	andb	$1, %al
	movzbl	%al, %eax
	.loc	31 137 2                ## /Applications/Xcode.app/Contents/Developer/Platforms/MacOSX.platform/Developer/SDKs/MacOSX10.13.sdk/usr/include/_ctype.h:137:2
	popq	%rbp
	retq
Ltmp175:
Lfunc_end21:
	.cfi_endproc
                                        ## -- End function
	.globl	__ZN4listIPcEC2ES0_     ## -- Begin function _ZN4listIPcEC2ES0_
	.weak_def_can_be_hidden	__ZN4listIPcEC2ES0_
	.p2align	4, 0x90
__ZN4listIPcEC2ES0_:                    ## @_ZN4listIPcEC2ES0_
Lfunc_begin22:
	.loc	49 72 0 is_stmt 1       ## /Users/macbook/Documents/GitHub/-Hash-Table/Hash/../resources/List.h:72:0
	.cfi_startproc
	.cfi_personality 155, ___gxx_personality_v0
	.cfi_lsda 16, Lexception2
## BB#0:
	pushq	%rbp
Lcfi66:
	.cfi_def_cfa_offset 16
Lcfi67:
	.cfi_offset %rbp, -16
	movq	%rsp, %rbp
Lcfi68:
	.cfi_def_cfa_register %rbp
	subq	$96, %rsp
	movq	%rdi, -8(%rbp)
	movq	%rsi, -16(%rbp)
	movq	-8(%rbp), %rsi
Ltmp179:
	.loc	49 70 1 prologue_end    ## /Users/macbook/Documents/GitHub/-Hash-Table/Hash/../resources/List.h:70:1
	movl	$1, (%rsi)
	.loc	49 71 1                 ## /Users/macbook/Documents/GitHub/-Hash-Table/Hash/../resources/List.h:71:1
	movq	%rsi, %rdi
	addq	$8, %rdi
	.loc	49 71 8 is_stmt 0       ## /Users/macbook/Documents/GitHub/-Hash-Table/Hash/../resources/List.h:71:8
	movl	$24, %eax
	movl	%eax, %ecx
	movq	%rdi, -48(%rbp)         ## 8-byte Spill
	movq	%rcx, %rdi
	movq	%rsi, -56(%rbp)         ## 8-byte Spill
	callq	__Znwm
	movq	%rax, %rcx
	movq	%rax, %rsi
Ltmp176:
	xorl	%edx, %edx
	movl	%edx, %edi
	.loc	49 71 12                ## /Users/macbook/Documents/GitHub/-Hash-Table/Hash/../resources/List.h:71:12
	movq	%rdi, -64(%rbp)         ## 8-byte Spill
	movq	%rax, %rdi
	movq	-64(%rbp), %rax         ## 8-byte Reload
	movq	%rsi, -72(%rbp)         ## 8-byte Spill
	movq	%rax, %rsi
	movq	%rcx, -80(%rbp)         ## 8-byte Spill
	callq	__ZN6cell_tIPcEC1ES0_
Ltmp177:
	jmp	LBB22_1
LBB22_1:
	.loc	49 0 12                 ## /Users/macbook/Documents/GitHub/-Hash-Table/Hash/../resources/List.h:0:12
	leaq	L_.str.7(%rip), %rax
	.loc	49 71 1                 ## /Users/macbook/Documents/GitHub/-Hash-Table/Hash/../resources/List.h:71:1
	movq	-48(%rbp), %rcx         ## 8-byte Reload
	movq	-72(%rbp), %rdx         ## 8-byte Reload
	movq	%rdx, (%rcx)
	.loc	49 62 11 is_stmt 1      ## /Users/macbook/Documents/GitHub/-Hash-Table/Hash/../resources/List.h:62:11
	movq	-56(%rbp), %rsi         ## 8-byte Reload
	movq	%rax, 32(%rsi)
Ltmp180:
	.loc	49 73 22                ## /Users/macbook/Documents/GitHub/-Hash-Table/Hash/../resources/List.h:73:22
	movq	8(%rsi), %rax
	.loc	49 73 20 is_stmt 0      ## /Users/macbook/Documents/GitHub/-Hash-Table/Hash/../resources/List.h:73:20
	movq	%rax, 16(%rsi)
	.loc	49 74 12 is_stmt 1      ## /Users/macbook/Documents/GitHub/-Hash-Table/Hash/../resources/List.h:74:12
	movq	8(%rsi), %rax
	.loc	49 74 10 is_stmt 0      ## /Users/macbook/Documents/GitHub/-Hash-Table/Hash/../resources/List.h:74:10
	movq	%rax, 24(%rsi)
Ltmp181:
	.loc	49 75 5 is_stmt 1       ## /Users/macbook/Documents/GitHub/-Hash-Table/Hash/../resources/List.h:75:5
	cmpq	$0, 8(%rsi)
Ltmp182:
	.loc	49 75 5 is_stmt 0       ## /Users/macbook/Documents/GitHub/-Hash-Table/Hash/../resources/List.h:75:5
	je	LBB22_4
## BB#2:
Ltmp183:
	.loc	49 75 5                 ## /Users/macbook/Documents/GitHub/-Hash-Table/Hash/../resources/List.h:75:5
	jmp	LBB22_8
Ltmp184:
LBB22_3:
Ltmp178:
	.loc	49 76 1 is_stmt 1       ## /Users/macbook/Documents/GitHub/-Hash-Table/Hash/../resources/List.h:76:1
	movl	%edx, %ecx
	movq	%rax, -24(%rbp)
	movl	%ecx, -28(%rbp)
	.loc	49 71 8                 ## /Users/macbook/Documents/GitHub/-Hash-Table/Hash/../resources/List.h:71:8
	movq	-80(%rbp), %rdi         ## 8-byte Reload
	callq	__ZdlPv
	jmp	LBB22_9
LBB22_4:
	.loc	49 0 8 is_stmt 0        ## /Users/macbook/Documents/GitHub/-Hash-Table/Hash/../resources/List.h:0:8
	leaq	L_.str.8(%rip), %rdi
	leaq	L_.str.9(%rip), %rsi
Ltmp185:
	.loc	49 75 5 is_stmt 1       ## /Users/macbook/Documents/GitHub/-Hash-Table/Hash/../resources/List.h:75:5
	callq	_fopen
	leaq	L_.str.10(%rip), %rsi
	movq	%rax, -40(%rbp)
	movq	-40(%rbp), %rdi
	movb	$0, %al
	callq	_fprintf
	leaq	L_.str.11(%rip), %rsi
	leaq	L_.str.12(%rip), %rdx
	leaq	L_.str.13(%rip), %rcx
	movl	$75, %r8d
	movq	-40(%rbp), %rdi
	movl	%eax, -84(%rbp)         ## 4-byte Spill
	movb	$0, %al
	callq	_fprintf
	leaq	L_.str.14(%rip), %rsi
	movq	-40(%rbp), %rdi
	movl	%eax, -88(%rbp)         ## 4-byte Spill
	movb	$0, %al
	callq	_fprintf
	movq	-40(%rbp), %rdi
	movl	%eax, -92(%rbp)         ## 4-byte Spill
	callq	_fclose
	movq	-56(%rbp), %rcx         ## 8-byte Reload
	cmpq	$0, 8(%rcx)
	setne	%r9b
	xorb	$-1, %r9b
	testb	$1, %r9b
	movl	%eax, -96(%rbp)         ## 4-byte Spill
	jne	LBB22_5
	jmp	LBB22_6
LBB22_5:
	.loc	49 0 5 is_stmt 0        ## /Users/macbook/Documents/GitHub/-Hash-Table/Hash/../resources/List.h:0:5
	leaq	L___func__._ZN4listIPcEC2ES0_(%rip), %rdi
	leaq	L_.str.13(%rip), %rsi
	movl	$75, %edx
	leaq	L_.str.12(%rip), %rcx
	.loc	49 75 5                 ## /Users/macbook/Documents/GitHub/-Hash-Table/Hash/../resources/List.h:75:5
	callq	___assert_rtn
LBB22_6:
	jmp	LBB22_7
Ltmp186:
LBB22_7:
	.loc	49 0 5                  ## /Users/macbook/Documents/GitHub/-Hash-Table/Hash/../resources/List.h:0:5
	jmp	LBB22_8
LBB22_8:
	.loc	49 76 1 is_stmt 1       ## /Users/macbook/Documents/GitHub/-Hash-Table/Hash/../resources/List.h:76:1
	addq	$96, %rsp
	popq	%rbp
	retq
LBB22_9:
	.loc	49 71 8                 ## /Users/macbook/Documents/GitHub/-Hash-Table/Hash/../resources/List.h:71:8
	movq	-24(%rbp), %rdi
	callq	__Unwind_Resume
Ltmp187:
Lfunc_end22:
	.cfi_endproc
	.section	__TEXT,__gcc_except_tab
	.p2align	2
GCC_except_table22:
Lexception2:
	.byte	255                     ## @LPStart Encoding = omit
	.byte	155                     ## @TType Encoding = indirect pcrel sdata4
	.byte	41                      ## @TType base offset
	.byte	3                       ## Call site Encoding = udata4
	.byte	39                      ## Call site table length
Lset17 = Lfunc_begin22-Lfunc_begin22    ## >> Call Site 1 <<
	.long	Lset17
Lset18 = Ltmp176-Lfunc_begin22          ##   Call between Lfunc_begin22 and Ltmp176
	.long	Lset18
	.long	0                       ##     has no landing pad
	.byte	0                       ##   On action: cleanup
Lset19 = Ltmp176-Lfunc_begin22          ## >> Call Site 2 <<
	.long	Lset19
Lset20 = Ltmp177-Ltmp176                ##   Call between Ltmp176 and Ltmp177
	.long	Lset20
Lset21 = Ltmp178-Lfunc_begin22          ##     jumps to Ltmp178
	.long	Lset21
	.byte	0                       ##   On action: cleanup
Lset22 = Ltmp177-Lfunc_begin22          ## >> Call Site 3 <<
	.long	Lset22
Lset23 = Lfunc_end22-Ltmp177            ##   Call between Ltmp177 and Lfunc_end22
	.long	Lset23
	.long	0                       ##     has no landing pad
	.byte	0                       ##   On action: cleanup
	.p2align	2
                                        ## -- End function
	.section	__TEXT,__text,regular,pure_instructions
	.private_extern	__ZN6cell_tIPcEC1ES0_ ## -- Begin function _ZN6cell_tIPcEC1ES0_
	.globl	__ZN6cell_tIPcEC1ES0_
	.weak_def_can_be_hidden	__ZN6cell_tIPcEC1ES0_
	.p2align	4, 0x90
__ZN6cell_tIPcEC1ES0_:                  ## @_ZN6cell_tIPcEC1ES0_
Lfunc_begin23:
	.loc	49 24 0                 ## /Users/macbook/Documents/GitHub/-Hash-Table/Hash/../resources/List.h:24:0
	.cfi_startproc
## BB#0:
	pushq	%rbp
Lcfi69:
	.cfi_def_cfa_offset 16
Lcfi70:
	.cfi_offset %rbp, -16
	movq	%rsp, %rbp
Lcfi71:
	.cfi_def_cfa_register %rbp
	subq	$16, %rsp
	movq	%rdi, -8(%rbp)
	movq	%rsi, -16(%rbp)
	movq	-8(%rbp), %rdi
Ltmp188:
	.loc	49 24 5 prologue_end    ## /Users/macbook/Documents/GitHub/-Hash-Table/Hash/../resources/List.h:24:5
	movq	-16(%rbp), %rsi
	callq	__ZN6cell_tIPcEC2ES0_
	.loc	49 24 6 is_stmt 0       ## /Users/macbook/Documents/GitHub/-Hash-Table/Hash/../resources/List.h:24:6
	addq	$16, %rsp
	popq	%rbp
	retq
Ltmp189:
Lfunc_end23:
	.cfi_endproc
                                        ## -- End function
	.private_extern	__ZN6cell_tIPcEC2ES0_ ## -- Begin function _ZN6cell_tIPcEC2ES0_
	.globl	__ZN6cell_tIPcEC2ES0_
	.weak_def_can_be_hidden	__ZN6cell_tIPcEC2ES0_
	.p2align	4, 0x90
__ZN6cell_tIPcEC2ES0_:                  ## @_ZN6cell_tIPcEC2ES0_
Lfunc_begin24:
	.loc	49 24 0 is_stmt 1       ## /Users/macbook/Documents/GitHub/-Hash-Table/Hash/../resources/List.h:24:0
	.cfi_startproc
## BB#0:
	pushq	%rbp
Lcfi72:
	.cfi_def_cfa_offset 16
Lcfi73:
	.cfi_offset %rbp, -16
	movq	%rsp, %rbp
Lcfi74:
	.cfi_def_cfa_register %rbp
	movq	%rdi, -8(%rbp)
	movq	%rsi, -16(%rbp)
	movq	-8(%rbp), %rsi
Ltmp190:
	.loc	49 21 12 prologue_end   ## /Users/macbook/Documents/GitHub/-Hash-Table/Hash/../resources/List.h:21:12
	movq	-16(%rbp), %rdi
	.loc	49 21 5 is_stmt 0       ## /Users/macbook/Documents/GitHub/-Hash-Table/Hash/../resources/List.h:21:5
	movq	%rdi, (%rsi)
	.loc	49 22 5 is_stmt 1       ## /Users/macbook/Documents/GitHub/-Hash-Table/Hash/../resources/List.h:22:5
	movq	$0, 8(%rsi)
	.loc	49 23 5                 ## /Users/macbook/Documents/GitHub/-Hash-Table/Hash/../resources/List.h:23:5
	movq	$0, 16(%rsi)
	.loc	49 24 6                 ## /Users/macbook/Documents/GitHub/-Hash-Table/Hash/../resources/List.h:24:6
	popq	%rbp
	retq
Ltmp191:
Lfunc_end24:
	.cfi_endproc
                                        ## -- End function
	.globl	__ZN4listIPcED2Ev       ## -- Begin function _ZN4listIPcED2Ev
	.weak_def_can_be_hidden	__ZN4listIPcED2Ev
	.p2align	4, 0x90
__ZN4listIPcED2Ev:                      ## @_ZN4listIPcED2Ev
Lfunc_begin25:
	.loc	49 82 0                 ## /Users/macbook/Documents/GitHub/-Hash-Table/Hash/../resources/List.h:82:0
	.cfi_startproc
## BB#0:
	pushq	%rbp
Lcfi75:
	.cfi_def_cfa_offset 16
Lcfi76:
	.cfi_offset %rbp, -16
	movq	%rsp, %rbp
Lcfi77:
	.cfi_def_cfa_register %rbp
	subq	$32, %rsp
	movq	%rdi, -8(%rbp)
	movq	-8(%rbp), %rdi
Ltmp192:
	.loc	49 83 13 prologue_end   ## /Users/macbook/Documents/GitHub/-Hash-Table/Hash/../resources/List.h:83:13
	movq	16(%rdi), %rax
	.loc	49 83 11 is_stmt 0      ## /Users/macbook/Documents/GitHub/-Hash-Table/Hash/../resources/List.h:83:11
	movq	%rax, 8(%rdi)
Ltmp193:
	.loc	49 84 14 is_stmt 1      ## /Users/macbook/Documents/GitHub/-Hash-Table/Hash/../resources/List.h:84:14
	movl	$0, -12(%rbp)
	movq	%rdi, -24(%rbp)         ## 8-byte Spill
LBB25_1:                                ## =>This Inner Loop Header: Depth=1
Ltmp194:
	.loc	49 84 21 is_stmt 0      ## /Users/macbook/Documents/GitHub/-Hash-Table/Hash/../resources/List.h:84:21
	movl	-12(%rbp), %eax
	.loc	49 84 23                ## /Users/macbook/Documents/GitHub/-Hash-Table/Hash/../resources/List.h:84:23
	movq	-24(%rbp), %rcx         ## 8-byte Reload
	cmpl	(%rcx), %eax
Ltmp195:
	.loc	49 84 5                 ## /Users/macbook/Documents/GitHub/-Hash-Table/Hash/../resources/List.h:84:5
	jge	LBB25_8
## BB#2:                                ##   in Loop: Header=BB25_1 Depth=1
Ltmp196:
	.loc	49 85 26 is_stmt 1      ## /Users/macbook/Documents/GitHub/-Hash-Table/Hash/../resources/List.h:85:26
	movq	-24(%rbp), %rax         ## 8-byte Reload
	movq	8(%rax), %rcx
	.loc	49 85 24 is_stmt 0      ## /Users/macbook/Documents/GitHub/-Hash-Table/Hash/../resources/List.h:85:24
	movq	%rcx, 16(%rax)
Ltmp197:
	.loc	49 86 13 is_stmt 1      ## /Users/macbook/Documents/GitHub/-Hash-Table/Hash/../resources/List.h:86:13
	movl	-12(%rbp), %edx
	.loc	49 86 15 is_stmt 0      ## /Users/macbook/Documents/GitHub/-Hash-Table/Hash/../resources/List.h:86:15
	cmpl	(%rax), %edx
Ltmp198:
	.loc	49 86 13                ## /Users/macbook/Documents/GitHub/-Hash-Table/Hash/../resources/List.h:86:13
	jge	LBB25_4
## BB#3:                                ##   in Loop: Header=BB25_1 Depth=1
Ltmp199:
	.loc	49 87 21 is_stmt 1      ## /Users/macbook/Documents/GitHub/-Hash-Table/Hash/../resources/List.h:87:21
	movq	-24(%rbp), %rax         ## 8-byte Reload
	movq	8(%rax), %rcx
	.loc	49 87 28 is_stmt 0      ## /Users/macbook/Documents/GitHub/-Hash-Table/Hash/../resources/List.h:87:28
	movq	8(%rcx), %rcx
	.loc	49 87 19                ## /Users/macbook/Documents/GitHub/-Hash-Table/Hash/../resources/List.h:87:19
	movq	%rcx, 8(%rax)
Ltmp200:
LBB25_4:                                ##   in Loop: Header=BB25_1 Depth=1
	.loc	49 88 16 is_stmt 1      ## /Users/macbook/Documents/GitHub/-Hash-Table/Hash/../resources/List.h:88:16
	movq	-24(%rbp), %rax         ## 8-byte Reload
	movq	16(%rax), %rcx
	.loc	49 88 9 is_stmt 0       ## /Users/macbook/Documents/GitHub/-Hash-Table/Hash/../resources/List.h:88:9
	cmpq	$0, %rcx
	movq	%rcx, -32(%rbp)         ## 8-byte Spill
	je	LBB25_6
## BB#5:                                ##   in Loop: Header=BB25_1 Depth=1
	movq	-32(%rbp), %rdi         ## 8-byte Reload
	callq	__ZN6cell_tIPcED1Ev
	movq	-32(%rbp), %rdi         ## 8-byte Reload
	callq	__ZdlPv
LBB25_6:                                ##   in Loop: Header=BB25_1 Depth=1
	.loc	49 89 5 is_stmt 1       ## /Users/macbook/Documents/GitHub/-Hash-Table/Hash/../resources/List.h:89:5
	jmp	LBB25_7
Ltmp201:
LBB25_7:                                ##   in Loop: Header=BB25_1 Depth=1
	.loc	49 84 33                ## /Users/macbook/Documents/GitHub/-Hash-Table/Hash/../resources/List.h:84:33
	movl	-12(%rbp), %eax
	addl	$1, %eax
	movl	%eax, -12(%rbp)
	.loc	49 84 5 is_stmt 0       ## /Users/macbook/Documents/GitHub/-Hash-Table/Hash/../resources/List.h:84:5
	jmp	LBB25_1
Ltmp202:
LBB25_8:
	.loc	49 90 1 is_stmt 1       ## /Users/macbook/Documents/GitHub/-Hash-Table/Hash/../resources/List.h:90:1
	addq	$32, %rsp
	popq	%rbp
	retq
Ltmp203:
Lfunc_end25:
	.cfi_endproc
                                        ## -- End function
	.private_extern	__ZN6cell_tIPcED1Ev ## -- Begin function _ZN6cell_tIPcED1Ev
	.globl	__ZN6cell_tIPcED1Ev
	.weak_def_can_be_hidden	__ZN6cell_tIPcED1Ev
	.p2align	4, 0x90
__ZN6cell_tIPcED1Ev:                    ## @_ZN6cell_tIPcED1Ev
Lfunc_begin26:
	.loc	49 29 0                 ## /Users/macbook/Documents/GitHub/-Hash-Table/Hash/../resources/List.h:29:0
	.cfi_startproc
## BB#0:
	pushq	%rbp
Lcfi78:
	.cfi_def_cfa_offset 16
Lcfi79:
	.cfi_offset %rbp, -16
	movq	%rsp, %rbp
Lcfi80:
	.cfi_def_cfa_register %rbp
	subq	$16, %rsp
	movq	%rdi, -8(%rbp)
	movq	-8(%rbp), %rdi
Ltmp204:
	.loc	49 29 16 prologue_end   ## /Users/macbook/Documents/GitHub/-Hash-Table/Hash/../resources/List.h:29:16
	callq	__ZN6cell_tIPcED2Ev
	.loc	49 29 17 is_stmt 0      ## /Users/macbook/Documents/GitHub/-Hash-Table/Hash/../resources/List.h:29:17
	addq	$16, %rsp
	popq	%rbp
	retq
Ltmp205:
Lfunc_end26:
	.cfi_endproc
                                        ## -- End function
	.private_extern	__ZN6cell_tIPcED2Ev ## -- Begin function _ZN6cell_tIPcED2Ev
	.globl	__ZN6cell_tIPcED2Ev
	.weak_def_can_be_hidden	__ZN6cell_tIPcED2Ev
	.p2align	4, 0x90
__ZN6cell_tIPcED2Ev:                    ## @_ZN6cell_tIPcED2Ev
Lfunc_begin27:
	.loc	49 29 0 is_stmt 1       ## /Users/macbook/Documents/GitHub/-Hash-Table/Hash/../resources/List.h:29:0
	.cfi_startproc
## BB#0:
	pushq	%rbp
Lcfi81:
	.cfi_def_cfa_offset 16
Lcfi82:
	.cfi_offset %rbp, -16
	movq	%rsp, %rbp
Lcfi83:
	.cfi_def_cfa_register %rbp
	movq	%rdi, -8(%rbp)
Ltmp206:
	.loc	49 29 17 prologue_end   ## /Users/macbook/Documents/GitHub/-Hash-Table/Hash/../resources/List.h:29:17
	popq	%rbp
	retq
Ltmp207:
Lfunc_end27:
	.cfi_endproc
                                        ## -- End function
	.section	__TEXT,__const
__ZL15FILES_READ_NAME:                  ## @_ZL15FILES_READ_NAME
	.asciz	"Text.txt"

__ZL17FILES_WRITE_NAME1:                ## @_ZL17FILES_WRITE_NAME1
	.asciz	"TextW1.txt"

__ZL17FILES_WRITE_NAME0:                ## @_ZL17FILES_WRITE_NAME0
	.asciz	"TextW0.txt"

__ZL17FILES_WRITE_NAME2:                ## @_ZL17FILES_WRITE_NAME2
	.asciz	"TextW2.txt"

__ZL17FILES_WRITE_NAME3:                ## @_ZL17FILES_WRITE_NAME3
	.asciz	"TextW3.txt"

__ZL17FILES_WRITE_NAME4:                ## @_ZL17FILES_WRITE_NAME4
	.asciz	"TextW4.txt"

__ZL17FILES_WRITE_NAME5:                ## @_ZL17FILES_WRITE_NAME5
	.asciz	"TextW5.txt"

	.section	__TEXT,__cstring,cstring_literals
L_.str:                                 ## @.str
	.asciz	"rt"

L___func__._Z9ReadFilesPKcPi:           ## @__func__._Z9ReadFilesPKcPi
	.asciz	"ReadFiles"

L_.str.1:                               ## @.str.1
	.asciz	"/Users/macbook/Documents/GitHub/-Hash-Table/Hash/main.cpp"

L_.str.2:                               ## @.str.2
	.asciz	"files != NULL"

L_.str.3:                               ## @.str.3
	.asciz	"wt"

L___func__._Z10PrintFilesPKcP4listIPcEPi: ## @__func__._Z10PrintFilesPKcP4listIPcEPi
	.asciz	"PrintFiles"

L_.str.4:                               ## @.str.4
	.asciz	"files"

L_.str.5:                               ## @.str.5
	.asciz	"%i; %i\n"

L_.str.6:                               ## @.str.6
	.asciz	"%i; 0\n"

L_.str.7:                               ## @.str.7
	.asciz	"LogFilesList.txt"

L_.str.8:                               ## @.str.8
	.asciz	"LogFiles.txt"

L_.str.9:                               ## @.str.9
	.asciz	"at"

L_.str.10:                              ## @.str.10
	.asciz	"==========ASSERT_LIST========\n\n"

L_.str.11:                              ## @.str.11
	.asciz	"ERROR:\nAssertion failed: %s\n   in file %s;\n   in line %i.\n"

L_.str.12:                              ## @.str.12
	.asciz	"_cell"

L_.str.13:                              ## @.str.13
	.asciz	"/Users/macbook/Documents/GitHub/-Hash-Table/Hash/../resources/List.h"

L_.str.14:                              ## @.str.14
	.asciz	"\n=============================\n\n"

L___func__._ZN4listIPcEC2ES0_:          ## @__func__._ZN4listIPcEC2ES0_
	.asciz	"list"

L_.str.15:                              ## @.str.15
	.asciz	"cellbe"

L___func__._ZN4listIPcE5addbeEP6cell_tIS0_ES0_: ## @__func__._ZN4listIPcE5addbeEP6cell_tIS0_ES0_
	.asciz	"addbe"

L_.str.16:                              ## @.str.16
	.asciz	"new_cell"
